(dp1
S'finance minister peter walsh'
p2
(lp3
S'C:\\bharat\\Work\\OneDrive - NCSU\\github\\tag_based_file_manager\\sample\\cat-descriptions_120396.txt'
p4
asS'limited'
p5
(lp6
S'C:\\bharat\\Work\\OneDrive - NCSU\\github\\tag_based_file_manager\\sample\\junit_license.txt'
p7
aS'C:\\bharat\\Work\\OneDrive - NCSU\\github\\tag_based_file_manager\\sample\\eclipse_license.txt'
p8
asS'maintaining tax exempt status'
p9
(lp10
S'C:\\bharat\\Work\\OneDrive - NCSU\\github\\tag_based_file_manager\\sample\\adventures_tom_sawyer.txt'
p11
asS'language studies'
p12
(lp13
S'C:\\bharat\\Work\\OneDrive - NCSU\\github\\tag_based_file_manager\\sample\\README.txt'
p14
asS'forestry frans andriessen'
p15
(lp16
g4
asS'natural resources\n         minister  mohammad yasin khan wattoo'
p17
(lp18
g4
asS'}\n\n@article{lewis94d'
p19
(lp20
g14
asS'prime minister lubomir strougal'
p21
(lp22
g4
asS'palm =\nkernels'
p23
(lp24
S'C:\\bharat\\Work\\OneDrive - NCSU\\github\\tag_based_file_manager\\sample\\feldman-cia-worldfactbook-data.txt'
p25
asS'tourist industry'
p26
(lp27
g25
asS'lexisnexis academic\njump'
p28
(lp29
S'C:\\bharat\\Work\\OneDrive - NCSU\\github\\tag_based_file_manager\\sample\\data_mining.txt'
p30
asS'abdel-hadi-kandeel\nalfonsin\nalhaji-abdul-ahmed\nalptemocin\namato\nandersen\nandriessen\naqazadeh\naquino\narafat\nbabangida\nballadur\nbangemann\nbarreto\nberge\nbeteta\nblix\nboesky\nbond\nbotha\nbouey\nbraks\nbresser-pereira\nbrodersohn\nbrundtland\ncamdessus\ncarlsson\ncaro\ncastelo-branco\ncastro\ncavaco-silva\nchaves\nchen-muhua\nchiang-ching-kuo\nchien\nchirac\nciampi\ncolombo\nconable\nconcepcion\ncorrigan\ncossiga\ncrow\ndadzie\ndauster\nde-clercq\nde-kock\nde-korte\nde-la-madrid\nde-larosiere\ndel-mazo\ndelamuraz\ndelors\ndementsev\ndeng-xiaoping\ndennis\ndhillon\ndominguez\ndouglas\ndu-plessis\nduisenberg\ndunkel\nedelman\nenggaard\neser\nevren\neyskens\nfeldt\nfernandez\nferrari\nfinnbogadottir\nfriedman\nfujioka\ngaddafi\ngandhi\ngarcia\ngava\ngodeaux\ngonzalez\ngorbachev\ngoria\ngostyev\ngraf\ngreenspan\ngromyko\ngrosz\nguillaume\nhalikias\nhamad-saud-al-sayyari\nhannibalsson\nhaughey\nhawke\nhe-kang\nherrington\nhillery\nhisham-nazer\nhoefner\nhoffmeyer\nholberg\nholkeri\nhonecker\nhovmand\nhoward-baker\nhusak\nicahn\njames-baker\njames-miller\njaruzelski\njayme\njohnston\nkaminsky\nkaufman\nkeating\nkhameini\nkhomeini\nkiechle\nking-fahd\nkohl\nkoivisto\nkondo\nkoren\nkullberg\nlacina\nlange\nlanguetin\nlawson\nlee-ta-hai\nlee-teng-hui\nleenanon\nleigh-pemberton\nleitz\nli-peng\nli-xiannian\nliikanen\nlubbers\nlukman\nlyng\nmachinea\nmacsharry\nmalhotra\nmancera-aguayo\nmartens\nmartin\nmasse\nmaxwell\nmaystadt\nmedgyessy\nmessner\nmikulic\nmilliet\nmitterrand\nmiyazawa\nmohammad-ibrahim-jaffrey-baluch\nmohammad-khan-junejo\nmohammad-yasin-khan-wattoo\nmohammed-ahmed-al-razaz\nmohammed-ali-abal-khail\nmohammed-salaheddin-hamid\nmorales-bermudez\nmousavi\nmoyle\nmubarak\nmulroney\nmurdoch\nmustapha\nnakao\nnakasone\nnasko\nnemeth\nnobrega\no-cofaigh\no-kennedy\noeien\nokongwu\nongpin\nortega\nozal\npalsson\npandolfi\npapandreou\nparkinson\npaye\nperez-de-cuellar\npetricioli\npickens\npoehl\npottakis\nprawiro\nqassemi\nrafnar\nrafsanjani\nreagan\nrezende\nriberio-cadilhe\nrich\nrikanovic\nrojas\nromero\nroumeliotis\nrowland\nrubio\nruder\nruding\nrussell\nryzhkov\nsaberbein\nsalinas\nsamojlik\nsanter\nsaracoglu\nsarney\nsartzetakis\nsathe\nschlueter\nsedki\nsimitis\nsimonsen\nsinghasaneh\nsiregar\nskaanland\nsoares\nsolchaga\nsourrouille\nsprinkel\nsteeg\nstich\nstoltenberg\nstoph\nstrougal\nsubroto\nsuharto\nsumita\nsuominen\ntakeshita\ntamura\ntavares-moreia\nthatcher\ntimar\ntinsulanonda\ntiwari\ntoernaes\ntoman\ntsovolas\nvancsa\nvenkataraman\nvera-la-rosa\nverity\nvillanyi\nvlatkovic\nvolcker\nvon-weizsaecker\nvranitzky\nwaldheim\nwali\nwalsh\nwang-bingqian\nwardhana\nwasim-aun-jaffrey\nwilson\nwise\nyeutter\nyoung\nyu-kuo-hua\nzak\nzhao-ziyang\nzheng-tuobin\nzia-ul-haq'
p31
(lp32
S'C:\\bharat\\Work\\OneDrive - NCSU\\github\\tag_based_file_manager\\sample\\all-people-strings.lc.txt'
p33
asS'palm oil =\nprocessing'
p34
(lp35
g25
asS'uranium\n1'
p36
(lp37
S'C:\\bharat\\Work\\OneDrive - NCSU\\github\\tag_based_file_manager\\sample\\mining_south_africa.txt'
p38
asS'initial developer grant'
p39
(lp40
S'C:\\bharat\\Work\\OneDrive - NCSU\\github\\tag_based_file_manager\\sample\\jaxb_license.txt'
p41
asS'knowledge-based systems'
p42
(lp43
g14
asS'published-testset indicating'
p44
(lp45
g14
asS'west asia'
p46
(lp47
g4
asS'lewis split'
p48
(lp49
g14
asS'pleasant rearward apartment'
p50
(lp51
g11
asS'ship repair'
p52
(lp53
g25
asS'effect making'
p54
(lp55
g41
asS'mediation'
p56
(lp57
g38
asS'previous research'
p58
(lp59
g14
asS'@end[itemize]\n\nfinland\n@begin[itemize]\n   president mauno koivisto'
p60
(lp61
g4
asS'data errors'
p62
(lp63
g30
asS'heavy thunder constantly\nvibrated'
p64
(lp65
g11
asS'earlier study'
p66
(lp67
g14
asS'governor gerhard de kock'
p68
(lp69
g4
asS'mere fanciful forms'
p70
(lp71
g11
asS'raw analysis step'
p72
(lp73
g30
asS'roles [lewis94d]'
p74
(lp75
g14
asS'96 conference'
p76
(lp77
g14
asS'uranium production'
p78
(lp79
g38
asS'sufficient rights'
p80
(lp81
g41
asS'affect'
p82
(lp83
g7
ag8
asS'distribution medium'
p84
(lp85
g41
asS'orgs categories'
p86
(lp87
g14
asS'insignificant\nwhitewashed streak'
p88
(lp89
g11
asS'nose\npointing heavenward'
p90
(lp91
g11
asS'project gutenberg-tm\nelectronic work'
p92
(lp93
g11
asS'including revisions'
p94
(lp95
g7
ag8
asS'energy minister svend erik hovmand'
p96
(lp97
g4
asS'conditions tolerable'
p98
(lp99
g38
asS'powerful\n\xc2\x91fraid ole missis--\xc2\x94\n\n\xc2\x93'
p100
(lp101
g11
asS'venue'
p102
(lp103
g41
asS'data sets'
p104
(lp105
g30
ag14
asS'data miningformal sciences\nnavigation menu'
p106
(lp107
g30
asS'topics attribute'
p108
(lp109
g14
asS'financial services'
p110
(lp111
g25
asS'ship repairing'
p112
(lp113
g25
asS'nascio research'
p114
(lp115
g30
asS'york mercantile exchange'
p116
(lp117
g4
asS'short notice'
p118
(lp119
g41
asS'food minister bruno leitz'
p120
(lp121
g4
asS'mining investment shows recovery'
p122
(lp123
g38
asS'quality consumer goods'
p124
(lp125
g25
asS'consistent'
p126
(lp127
g41
asS'open neural networks library'
p128
(lp129
g30
asS'direct'
p130
(lp131
g7
ag8
asS'mining industry'
p132
(lp133
g38
asS'infringes'
p134
(lp135
g7
ag8
asS'site northeast'
p136
(lp137
g38
asS'include additions'
p138
(lp139
g7
ag8
asS'@end[itemize]\n\n\n\n\nportugal\n@begin[itemize]\n   president mario soares'
p140
(lp141
g4
asS'open access publishers'
p142
(lp143
g30
asS'reuters newswire stories'
p144
(lp145
g14
asS'\xc2\x93_i love you_'
p146
(lp147
g11
asS'reuters-21578 distribution'
p148
(lp149
g14
asS'history\n1'
p150
(lp151
g38
asS'rights granted directly'
p152
(lp153
g41
asS'steel =\nindustry'
p154
(lp155
g25
asS'money supply'
p156
(lp157
g4
asS'governor spencer russell'
p158
(lp159
g4
asS'version 2'
p160
(lp161
g41
asS'gas =\nproduction'
p162
(lp163
g25
asS'dominant =\nsector'
p164
(lp165
g25
asS'month = feb'
p166
(lp167
g14
asS'mineral wealth minister abdel-hadi kandeel'
p168
(lp169
g4
asS'general data set'
p170
(lp171
g30
asS'begin work'
p172
(lp173
g38
asS'british indian ocean territory'
p174
(lp175
g25
asS'small-scale =\nenterprises'
p176
(lp177
g25
asS'nonassociated =\nnatural gas'
p178
(lp179
g25
asS'decide planned'
p180
(lp181
g38
asS'finance minister peter medgyessy'
p182
(lp183
g4
asS'statistical classification techniques'
p184
(lp185
g14
asS'basic metal =\nproducts'
p186
(lp187
g25
asS'protection'
p188
(lp189
g41
asS'china'
p190
(lp191
g4
asS'ferro-silicon production'
p192
(lp193
g25
asS'^ karl rexer'
p194
(lp195
g30
asS'expressly granted'
p196
(lp197
g7
ag8
asS'duty--tom practices\nmusic--'
p198
(lp199
g11
asS'isbn 0-321-32136-7\ntheodoridis'
p200
(lp201
g30
asS'[16]\ndiamonds[edit]'
p202
(lp203
g38
asS'hp vertica analytics platform'
p204
(lp205
g30
asS'prime minister atef sedki'
p206
(lp207
g4
asS'property'
p208
(lp209
g41
asS'gold rush caused thousands'
p210
(lp211
g38
asS'suspected deposits'
p212
(lp213
g25
asS'huge producer'
p214
(lp215
g38
asS'netherlands guilder/florin'
p216
(lp217
g4
asS'genetic programming variant'
p218
(lp219
g30
asS'alleged intellectual property infringement'
p220
(lp221
g7
ag8
asS'information science department'
p222
(lp223
g14
asS'health insurance portability'
p224
(lp225
g30
asS'star pupils inquiring'
p226
(lp227
g11
asS'technology predominate'
p228
(lp229
g25
asS'clean territory stopped\nshort'
p230
(lp231
g11
asS'web mining'
p232
(lp233
g30
asS'dominican republic'
p234
(lp235
g25
asS'sas enterprise miner'
p236
(lp237
g30
asS'60 days notice'
p238
(lp239
g41
asS'performing proper statistical hypothesis testing'
p240
(lp241
g30
asS'secure'
p242
(lp243
g7
ag8
asS'extract previously unknown'
p244
(lp245
g30
asS'named\nentity'
p246
(lp247
g14
asS'reagan'
p248
(lp249
g4
asS'million metric tons'
p250
(lp251
g25
asS'=\nadministers western sahara'
p252
(lp253
g25
asS'sgml dtd file describing'
p254
(lp255
g14
asS'modified work'
p256
(lp257
g41
asS'small blue tickets'
p258
(lp259
g11
asS'principal crops =\ncorn'
p260
(lp261
g25
asS'additional information'
p262
(lp263
g14
asS'txt'
p264
(lp265
S'sample\\junit_license.txt'
p266
ag7
aS'sample\\adventures_tom_sawyer.txt'
p267
ag11
aS'sample\\all-exchanges-strings.lc.txt'
p268
aS'C:\\bharat\\Work\\OneDrive - NCSU\\github\\tag_based_file_manager\\sample\\all-exchanges-strings.lc.txt'
p269
aS'sample\\all-orgs-strings.lc.txt'
p270
aS'C:\\bharat\\Work\\OneDrive - NCSU\\github\\tag_based_file_manager\\sample\\all-orgs-strings.lc.txt'
p271
aS'sample\\all-people-strings.lc.txt'
p272
ag33
aS'sample\\all-places-strings.lc.txt'
p273
aS'C:\\bharat\\Work\\OneDrive - NCSU\\github\\tag_based_file_manager\\sample\\all-places-strings.lc.txt'
p274
aS'sample\\all-topics-strings.lc.txt'
p275
aS'C:\\bharat\\Work\\OneDrive - NCSU\\github\\tag_based_file_manager\\sample\\all-topics-strings.lc.txt'
p276
aS'sample\\cat-descriptions_120396.txt'
p277
ag4
aS'sample\\data_mining.txt'
p278
ag30
aS'sample\\eclipse_license.txt'
p279
ag8
aS'sample\\feldman-cia-worldfactbook-data.txt'
p280
ag25
aS'sample\\jaxb_license.txt'
p281
ag41
aS'sample\\mining_south_africa.txt'
p282
ag38
aS'sample\\README.txt'
p283
ag14
asS'association rule learning'
p284
(lp285
g30
asS'moot point'
p286
(lp287
g38
asS'text mining handbook'
p288
(lp289
g30
asS'java language'
p290
(lp291
g30
asS'south african mining sector'
p292
(lp293
g38
asS'cotton textile =\nmills'
p294
(lp295
g25
asS'thy caitiff carcase'
p296
(lp297
g11
asS'frequently criticized'
p298
(lp299
g38
asS'applications[edit]'
p300
(lp301
g30
asS'distributing'
p302
(lp303
g7
ag8
asS'licenses terminated'
p304
(lp305
g41
asS'machinery'
p306
(lp307
g38
asS'african =\ncountries'
p308
(lp309
g25
asS'offshore  financial =\ncenter'
p310
(lp311
g25
asS'survive'
p312
(lp313
g7
ag8
ag41
asS'recipient receives'
p314
(lp315
g7
ag8
asS'[21]\ncomputer science conferences'
p316
(lp317
g30
asS'agriculture minister major-general mohammed gado nasko'
p318
(lp319
g4
asS'belgian franc'
p320
(lp321
g4
asS'=\ntristan da cunha'
p322
(lp323
g25
asS'energy minister aureliano chaves'
p324
(lp325
g4
asS'aware'
p326
(lp327
g7
ag8
asS'software generally'
p328
(lp329
g41
asS'uranium mining began'
p330
(lp331
g25
asS'ofc'
p332
(lp333
S'sample\\dir1\\hello.ofc'
p334
aS'C:\\bharat\\Work\\OneDrive - NCSU\\github\\tag_based_file_manager\\sample\\dir1\\hello.ofc'
p335
asS'trademark notices contained'
p336
(lp337
g41
asS'business day'
p338
(lp339
g38
asS'marketplace surveys[edit]'
p340
(lp341
g30
asS'automated learning'
p342
(lp343
g14
asS'east european countries'
p344
(lp345
g25
asS'natural gas =\nproduction'
p346
(lp347
g25
asS'expressly stated'
p348
(lp349
g7
ag8
asS'finance minister'
p350
(lp351
g4
asS'chancellor franz vranitzky'
p352
(lp353
g4
asS'safe harbor principles'
p354
(lp355
g30
asS'previous modification'
p356
(lp357
g41
asS'frantic sufferer sheered'
p358
(lp359
g11
asS'gold discoveries played'
p360
(lp361
g38
asS'rights'
p362
(lp363
g7
ag8
ag41
asS'work'
p364
(lp365
g41
ag38
asS'light industrial products'
p366
(lp367
g25
asS'program errors'
p368
(lp369
g7
ag8
asS'treaty entered into--early lessons--'
p370
(lp371
g11
asS'@*\nmanila stock exchange'
p372
(lp373
g4
asS'central bank'
p374
(lp375
g4
asS'fertile =\nsoil'
p376
(lp377
g25
asS'machine learning algorithms'
p378
(lp379
g30
asS'standing committee'
p380
(lp381
g4
asS'author\n   gnomovision'
p382
(lp383
g41
asS'cloth=\ning'
p384
(lp385
g25
asS'@*\neuropean free trade association'
p386
(lp387
g4
asS'uranium ore mine'
p388
(lp389
g38
asS'steel community'
p390
(lp391
g4
asS'cape town'
p392
(lp393
g38
asS'privacy policyabout wikipediadisclaimerscontact wikipediadeveloperscookie statementmobile viewwikimedia foundation powered'
p394
(lp395
g30
ag38
asS'license steward'
p396
(lp397
g41
asS'light =\nmanubgfacturing'
p398
(lp399
g25
asS'licensed patents'
p400
(lp401
g7
ag8
asS'data mining & knowledge discovery process model'
p402
(lp403
g30
asS'000 workers'
p404
(lp405
g38
asS'times'
p406
(lp407
g38
asS'united arab =\nemirates'
p408
(lp409
g25
asS'money/foreign exchange'
p410
(lp411
g4
asS'topics categories *'
p412
(lp413
g14
asS'ieee transactions'
p414
(lp415
g30
asS'end'
p416
(lp417
g41
asS'recovery'
p418
(lp419
g38
asS'employees expend considerable\neffort'
p420
(lp421
g11
asS'cool dim gray'
p422
(lp423
g11
asS'provide'
p424
(lp425
g41
asS'paul volcker'
p426
(lp427
g4
asS'damage'
p428
(lp429
g7
ag8
asS'\xc2\x92ll\nplay robin hood--'
p430
(lp431
g11
asS'end user licenses'
p432
(lp433
g41
asS'aunt polly blushed crimson'
p434
(lp435
g11
asS'south african mining'
p436
(lp437
g38
asS'vredefort dome impact'
p438
(lp439
g38
asS'electric =\nmotors'
p440
(lp441
g25
asS'mysterious material'
p442
(lp443
g14
asS'national economy minister sheikh mohammed ali abal-khail'
p444
(lp445
g4
asS'ten red\ntickets equalled'
p446
(lp447
g11
asS'net agricultural importer'
p448
(lp449
g25
asS'@*\nchicago board'
p450
(lp451
g4
asS'domain-specific techniques'
p452
(lp453
g14
asS'computer technology'
p454
(lp455
g30
asS'cikm conference \xe2\x80\x93 acm conference'
p456
(lp457
g30
asS'fifty percent'
p458
(lp459
g41
asS'witwatersrand gold rush'
p460
(lp461
g38
asS'post-apartheid era'
p462
(lp463
g38
asS'non-exclusive license'
p464
(lp465
g41
asS'availability & questions'
p466
(lp467
g14
asS'president'
p468
(lp469
g4
asS'law'
p470
(lp471
g41
asS'^ aol search data identified individuals'
p472
(lp473
g30
asS'east rand mine'
p474
(lp475
g38
asS'governor jacques de larosiere'
p476
(lp477
g4
asS'civil society groups'
p478
(lp479
g30
asS'jeff thatcher lived'
p480
(lp481
g11
asS'petroleum/oil minister hisham nazer'
p482
(lp483
g4
asS'uranium produced'
p484
(lp485
g38
asS'@*\ninternational whaling commission'
p486
(lp487
g4
asS'waverer quickly \xc2\x93explained'
p488
(lp489
g11
asS'top nations'
p490
(lp491
g25
asS'royalty-free copyright license'
p492
(lp493
g7
ag8
asS'patent'
p494
(lp495
g7
ag8
ag41
asS'algorithms'
p496
(lp497
g30
asS'natural language processing systems'
p498
(lp499
g14
asS'finance minister roger douglas'
p500
(lp501
g4
asS'legal permission'
p502
(lp503
g41
asS'order'
p504
(lp505
g7
ag8
asS'patch-eyed spanish\ndevil'
p506
(lp507
g11
asS'program originate'
p508
(lp509
g7
ag8
asS'operations'
p510
(lp511
g7
ag8
asS'morgan kaufmann\nwitten'
p512
(lp513
g30
asS'intellectual property'
p514
(lp515
g7
ag8
asS'cardiff hill episode sank'
p516
(lp517
g11
asS'refined sugar'
p518
(lp519
g25
asS'annual fish  =\ncatch averages'
p520
(lp521
g25
asS']\n@begin[format]\nafghanistan@*\nalbania @*\nalgeria @*\namerican-samoa@*\nandorra @*\nangola  @*\nanguilla@*\nantigua @*\nargentina  @*\naruba@*\naustralia  @*\naustria @*\nbahamas @*\nbahrain @*\nbangladesh @*\nbarbados@*\nbelgium @*\nbelize  @*\nbenin@*\nbermuda @*\nbhutan  @*\nbolivia @*\nbotswana@*\nbrazil  @*\nbritish-virgin-islands@*\nbrunei  @*\nbulgaria@*\nburkina-faso@*\nburma@*\nburundi @*\ncameroon@*\ncanada  @*\ncape-verde @*\ncayman-islands@*\ncentral-african-republic@*\nchad @*\nchile@*\nchina@*\ncolombia@*\ncongo@*\ncosta-rica @*\ncuba @*\ncyprus  @*\nczechoslovakia@*\ndenmark@*\ndjibouti@*\ndominica@*\ndominican-republic@*\neast-germany@*\necuador @*\negypt@*\nel-salvador@*\nequatorial-guinea@*\nethiopia@*\nfiji @*\nfinland @*\nfrance  @*\nfrench-guiana@*\ngabon@*\ngambia  @*\nghana@*\ngibraltar  @*\ngreece  @*\ngrenada @*\nguadeloupe @*\nguam @*\nguatemala  @*\nguinea-bissau@*\nguinea  @*\nguyana  @*\nhaiti@*\nhonduras@*\nhong-kong  @*\nhungary @*\niceland @*\nindia@*\nindonesia  @*\niran @*\niraq @*\nireland @*\nisrael  @*\nitaly@*\nivory-coast@*\njamaica @*\njapan@*\njordan  @*\nkampuchea  @*\nkenya@*\nkuwait  @*\nlaos @*\nlebanon @*\nlesotho @*\nliberia @*\nlibya@*\nliechtenstein@*\nluxembourg @*\nmacao@*\nmadagascar @*\nmalawi  @*\nmalaysia@*\nmali @*\nmalta@*\nmartinique @*\nmauritania @*\nmauritius  @*\nmexico  @*\nmonaco  @*\nmorocco @*\nmozambique @*\nnamibia @*\nnepal@*\nnetherlands@*\nnetherlands-antilles@*\nnew-caledonia@*\nnew-zealand@*\nnicaragua  @*\nniger@*\nnigeria @*\nnorth-korea@*\nnorway  @*\noman @*\npakistan@*\npanama  @*\npapua-new-guinea@*\nparaguay@*\nperu @*\nphilippines@*\npoland  @*\nportugal@*\nqatar@*\nromania @*\nrwanda  @*\nsaudi-arabia@*\nsenegal @*\nseychelles @*\nsierra-leone@*\nsingapore  @*\nsomalia @*\nsouth-africa@*\nsouth-korea@*\nspain@*\nsri-lanka  @*\nsudan@*\nsuriname@*\nswaziland  @*\nsweden  @*\nswitzerland@*\nsyria@*\ntaiwan  @*\ntanzania@*\nthailand@*\ntogo @*\ntonga@*\ntrinidad-tobago@*\ntunisia @*\nturkey  @*\nuae  @*\nuganda  @*\nuk@*\nuruguay @*\nusa@*\nussr@*\nus-virgin-islands@*\nvanuatu @*\nvatican @*\nvenezuela  @*\nvietnam @*\nwest-germany@*\nwestern-samoa@*\nyemen-arab-republic@*\nyemen-demo-republic@*\nyugoslavia @*\nzaire@*\nzambia  @*\nzimbabwe@*\n@end[format]\n@blankspace[3 lines]\n________________________________________________________________\n@heading[people codes'
p522
(lp523
g4
asS'sole purpose'
p524
(lp525
g41
asS'@*\ntoronto stock exchange'
p526
(lp527
g4
asS'japan'
p528
(lp529
g4
asS'research paper submissions'
p530
(lp531
g30
asS'takeshita'
p532
(lp533
g4
asS'process[edit]'
p534
(lp535
g30
asS'lonmin strike'
p536
(lp537
g38
asS'data mining & aggregation'
p538
(lp539
g30
asS'[32] refrigeration'
p540
(lp541
g38
asS'resulting litigation'
p542
(lp543
g7
ag8
asS'version number'
p544
(lp545
g41
asS'produces fruit'
p546
(lp547
g25
asS'writing'
p548
(lp549
g7
ag8
asS'production'
p550
(lp551
g38
asS'longest strike'
p552
(lp553
g38
asS'agriculture minister colin moyle'
p554
(lp555
g4
asS'build=\ning materials'
p556
(lp557
g25
asS'damages'
p558
(lp559
g7
ag8
ag41
asS'plantations produce crops'
p560
(lp561
g25
asS'combination'
p562
(lp563
g7
ag8
asS'largest gold mine located'
p564
(lp565
g38
asS'similar'
p566
(lp567
g38
asS'offers warranties related'
p568
(lp569
g7
ag8
asS'afraid\n\nlate home\n\njim\n\n\xc2\x91tendin\xc2\x92'
p570
(lp571
g11
asS'netherlands\n@begin[itemize]\n   prime minister ruud lubbers'
p572
(lp573
g4
asS'data preparation'
p574
(lp575
g30
asS'@end[itemize]\n\nbrazil\n@begin[itemize]\n   president jose sarney'
p576
(lp577
g4
asS'delimit\ndocuments'
p578
(lp579
g14
asS'data mining curriculum'
p580
(lp581
g30
asS'including forestry'
p582
(lp583
g25
asS'platinum industry workers'
p584
(lp585
g38
asS'sid made mental\nnote'
p586
(lp587
g11
asS'warranty constitutes'
p588
(lp589
g41
asS'sauce open-air sleeping'
p590
(lp591
g11
asS'carry prominent notices stating'
p592
(lp593
g41
asS'training set splits'
p594
(lp595
g14
asS'@*\ncopenhagen stock exchange/bourse'
p596
(lp597
g4
asS'isbn 978-1-59904-162-9\ntan'
p598
(lp599
g30
asS'ventilation door frame'
p600
(lp601
g38
asS'project gutenberg-tm mission'
p602
(lp603
g11
asS'sigkdd explorations'
p604
(lp605
g30
asS'wide =\nvariety'
p606
(lp607
g25
asS'unmodified basis'
p608
(lp609
g41
asS'reasonable'
p610
(lp611
g41
asS'fitness'
p612
(lp613
g7
ag8
asS'animal husbandry predominates'
p614
(lp615
g25
asS'tags appears'
p616
(lp617
g14
asS'program subject'
p618
(lp619
g41
asS'isbn 0-620-05012-8'
p620
(lp621
g38
asS'noncompliance'
p622
(lp623
g7
ag8
asS'interruption'
p624
(lp625
g7
ag8
asS'david dolan lewis'
p626
(lp627
g14
asS'modlewis split'
p628
(lp629
g14
asS'statistical distribution'
p630
(lp631
g14
asS'frantic half-clad\npeople'
p632
(lp633
g11
asS'@*\ninternational natural rubber organisation'
p634
(lp635
g4
asS'spiral welded steel =\npipe'
p636
(lp637
g25
asS'distribution obligations'
p638
(lp639
g41
asS'industrial raw =\nmaterials'
p640
(lp641
g25
asS'tom sawyer stepped forward'
p642
(lp643
g11
asS'central african republic'
p644
(lp645
g25
asS'@*\ninternational bank'
p646
(lp647
g4
asS'2007 strike[edit]'
p648
(lp649
g38
asS'waldheim'
p650
(lp651
g4
asS'0\n                       readme file'
p652
(lp653
g14
asS'logged intalkcontributionscreate accountlog inarticletalkreadeditview historysearch\n\nsearch wikipedia'
p654
(lp655
g30
ag38
asS'spelling bee competition'
p656
(lp657
g30
asS'subsequent analysis strongly'
p658
(lp659
g14
asS'energy minister vasant sathe'
p660
(lp661
g4
asS'ten\nblue tickets equalled'
p662
(lp663
g11
asS'total depth'
p664
(lp665
g38
asS'written'
p666
(lp667
g41
asS'safe assumption'
p668
(lp669
g14
asS'explicit geographical distribution limitation excluding'
p670
(lp671
g41
asS'free'
p672
(lp673
g41
asS'offshore financial =\nservices'
p674
(lp675
g25
asS'chronological order'
p676
(lp677
g14
asS'poor safety record'
p678
(lp679
g38
asS'finished steel =\nproducts'
p680
(lp681
g25
asS'south african mining industry employs 493'
p682
(lp683
g38
asS'vengeance satisfied\n\nchapter xxii'
p684
(lp685
g11
asS'paracel islands'
p686
(lp687
g25
asS']\n@begin[format]\namerican stock exchange'
p688
(lp689
g4
asS'object code form'
p690
(lp691
g7
ag8
asS'kevin crowley'
p692
(lp693
g38
asS'federal reserve board'
p694
(lp695
g4
asS'finance minister dimitris tsovolas'
p696
(lp697
g4
asS'@*\ntokyo stock exchange'
p698
(lp699
g4
asS'small-scale modern industries'
p700
(lp701
g25
asS'garment production'
p702
(lp703
g25
asS'7'
(lp704
g7
ag8
asS'</unknown> [variable]'
p705
(lp706
g14
asS'text categorization\nissues'
p707
(lp708
g14
asS'sugar =\ncane'
p709
(lp710
g25
asS'previous modifications'
p711
(lp712
g41
asS'allowing comparability'
p713
(lp714
g14
asS'defend claims'
p715
(lp716
g7
ag8
asS'data integration\ndata transformation\nelectronic discovery\ninformation extraction\ninformation integration\nnamed-entity recognition\nprofiling'
p717
(lp718
g30
asS'prime minister thorsteinn palsson'
p719
(lp720
g4
asS'content mining'
p721
(lp722
g30
asS'@*\nmilan stock exchange/bourse'
p723
(lp724
g4
asS'large data sets involving methods'
p725
(lp726
g30
asS'\xc2\x91lowed _she\xc2\x92d_ \xc2\x91tend'
p727
(lp728
g11
asS'presumedly result'
p729
(lp730
g14
asS'current record'
p731
(lp732
g38
asS'longwall coal mines due'
p733
(lp734
g38
asS'rand rebellion[edit]'
p735
(lp736
g38
asS'peggy andersen'
p737
(lp738
g14
asS'consumer durables'
p739
(lp740
g25
asS'system'
p741
(lp742
g41
asS'internal revenue\nservice'
p743
(lp744
g11
asS'text categorization research'
p745
(lp746
g14
asS'deeper mines refrigeration'
p747
(lp748
g38
asS'descriptive text giving attribution'
p749
(lp750
g41
asS'676 unused\ndocuments'
p751
(lp752
g14
asS'expectoration marvellously\nincreased'
p753
(lp754
g11
asS'lawsuits'
p755
(lp756
g7
ag8
asS'motor vehicle assembly'
p757
(lp758
g25
asS'machine readable form accessible'
p759
(lp760
g11
asS'information science'
p761
(lp762
g30
asS'bank=\ning'
p763
(lp764
g25
asS'executable form'
p765
(lp766
g41
asS'largest producer[5]'
p767
(lp768
g38
asS'contact page\ntools'
p769
(lp770
g30
ag38
asS'united nations convention'
p771
(lp772
g41
asS'total fatalities'
p773
(lp774
g38
asS'principal citrus  =\nfruits'
p775
(lp776
g25
asS'basic subsistence =\nbreadfruit'
p777
(lp778
g25
asS'effectively convey'
p779
(lp780
g41
asS'rock mined'
p781
(lp782
g38
asS'association rule mining'
p783
(lp784
g30
asS'data mining step'
p785
(lp786
g30
asS'feature\ntakes'
p787
(lp788
g14
asS'serve'
p789
(lp790
g7
ag8
asS'start tag'
p791
(lp792
g14
asS'central bank president pierre languetin'
p793
(lp794
g4
asS'coils\n\npeter\n\naunt polly seeks information'
p795
(lp796
g11
asS'document assigned'
p797
(lp798
g14
asS'prayer\n\nmuff potter outwitted'
p799
(lp800
g11
asS'glimmering lights showed'
p801
(lp802
g11
asS'task'
p803
(lp804
g14
asS'general public license'
p805
(lp806
g41
asS'million metric =\ntons'
p807
(lp808
g25
asS'distributional information'
p809
(lp810
g14
asS'gpl version 2'
p811
(lp812
g41
asS'data collection'
p813
(lp814
g30
asS'finance minister ernst hoefner'
p815
(lp816
g4
asS'million times bullier'
p817
(lp818
g11
asS'controlled vocabulary fields'
p819
(lp820
g14
asS'large net importer'
p821
(lp822
g25
asS'invalid people andriesssen'
p823
(lp824
g14
asS'machine learning community'
p825
(lp826
g30
asS'newly compiled data set'
p827
(lp828
g30
asS'rate'
p829
(lp830
g38
asS'svg machine learning portal'
p831
(lp832
g30
asS'modifications created'
p833
(lp834
g41
asS'general agreement'
p835
(lp836
g4
asS'trade minister jose hugo castelo branco'
p837
(lp838
g4
asS'avoiding conflating\ndifferences'
p839
(lp840
g14
asS'hook\nbenny taylor\xc2\x92'
p841
(lp842
g11
asS'raw =\nmaterials'
p843
(lp844
g25
asS'startup conference'
p845
(lp846
g30
asS'good friendly\nfaces--good friendly faces'
p847
(lp848
g11
asS'business intelligence'
p849
(lp850
g30
asS'designated place'
p851
(lp852
g41
asS'manner'
p853
(lp854
g7
ag8
asS'santa clara county'
p855
(lp856
g41
asS'special exception'
p857
(lp858
g41
asS'commercial computer software documentation'
p859
(lp860
g41
asS'market basket analysis'
p861
(lp862
g30
asS'san mateo'
p863
(lp864
g14
asS'contents'
p865
(lp866
g41
asS'principal  crops'
p867
(lp868
g25
asS'[2] large scale'
p869
(lp870
g38
asS'open source deep learning library'
p871
(lp872
g30
asS'larger data populations'
p873
(lp874
g30
asS'johnny miller tackle'
p875
(lp876
g11
asS'considered negative examples'
p877
(lp878
g14
asS'central bank president fernando milliet'
p879
(lp880
g4
asS'typographical errors'
p881
(lp882
g14
asS'hipaa privacy rule impedes biomedical research'
p883
(lp884
g30
asS'practical machine learning tools'
p885
(lp886
g30
asS'natural language processing'
p887
(lp888
g30
asS'liquefied natural =\ngas'
p889
(lp890
g25
asS'2012\njump'
p891
(lp892
g38
asS'recommended\ntraining sets'
p893
(lp894
g14
asS'gaddafi'
p895
(lp896
g4
asS'process control =\nequipment'
p897
(lp898
g25
asS'links'
p899
(lp900
g38
asS'indexing terms'
p901
(lp902
g14
asS']\n\n@article{apte94'
p903
(lp904
g14
asS'marikana area'
p905
(lp906
g38
asS'\xc2\x94\n\ntail piece\n\nwidow douglas\n\ntom backs'
p907
(lp908
g11
asS'discovering data mining'
p909
(lp910
g30
asS'subsequent version'
p911
(lp912
g41
asS'present version'
p913
(lp914
g41
asS'claims'
p915
(lp916
g7
ag8
ag41
asS'document files'
p917
(lp918
g14
asS'widow\n\nvampires\n\nwonders'
p919
(lp920
g11
asS'received copies'
p921
(lp922
g41
asS'6 cubic metres'
p923
(lp924
g38
asS'@*\ninter-governmental maritime consultative organisation'
p925
(lp926
g4
asS'constru=\nction  materials'
p927
(lp928
g25
asS'reuters-21578 text categorization test collection\n                        distribution 1'
p929
(lp930
g14
asS'@end[itemize]\n\nmexico\n@begin[itemize]\n   president miguel de la madrid'
p931
(lp932
g4
asS'tags bracket control\ncharacters'
p933
(lp934
g14
asS'=\nnatural gas'
p935
(lp936
g25
asS'dead-limb trees--dead loads'
p937
(lp938
g11
asS'incorporate parts'
p939
(lp940
g41
asS'nuclear fuels corporation'
p941
(lp942
g38
asS'norfolk island pine'
p943
(lp944
g25
asS'^ [2]\njump'
p945
(lp946
g38
asS'aches perfectly awful'
p947
(lp948
g11
asS'ship repair =\nyard'
p949
(lp950
g25
asS'exact duplicates'
p951
(lp952
g14
asS'yielding stories'
p953
(lp954
g14
asS'limitation lost profits'
p955
(lp956
g7
ag8
asS'customer purchasing habits'
p957
(lp958
g30
asS'patent licenses granted'
p959
(lp960
g7
asS'usage data'
p961
(lp962
g30
asS'wikimedia foundation'
p963
(lp964
g30
ag38
asS'solely responsible'
p965
(lp966
g7
ag8
asS'los altos'
p967
(lp968
g14
asS'rich deposits'
p969
(lp970
g38
asS'@end[itemize]\n\nyugoslavia\n@begin[itemize]\n   prime minister branko mikulic'
p971
(lp972
g4
asS'rights granted hereunder'
p973
(lp974
g7
ag8
ag41
asS'[8]\ncontents  [hide] \n1'
p975
(lp976
g38
asS'komatiites present'
p977
(lp978
g38
asS'elandskraal mine'
p979
(lp980
g38
asS'@*\neuropean investment bank'
p981
(lp982
g4
asS'governor gerald'
p983
(lp984
g4
asS'participate'
p985
(lp986
g7
ag8
asS'recipient agrees'
p987
(lp988
g7
ag8
asS'face blast'
p989
(lp990
g38
asS'reflections grew oppressive'
p991
(lp992
g11
asS'okairp 2005 fall conference'
p993
(lp994
g30
asS'gitignore'
p995
(lp996
S'sample\\.gitignore'
p997
asS'timestamp duplicate'
p998
(lp999
g14
asS'copyright holders'
p1000
(lp1001
g41
asS'multiple\nrandom splits'
p1002
(lp1003
g14
asS'sugar'
p1004
(lp1005
g4
asS'0 test collection'
p1006
(lp1007
g14
asS'illegal domestic spying'
p1008
(lp1009
g30
asS'pirates ashore\n\nwild life'
p1010
(lp1011
g11
asS'falkland islands'
p1012
(lp1013
g25
asS'exports'
p1014
(lp1015
g38
asS'labor force ='
p1016
(lp1017
g25
asS'baron nathaniel mayer rothschild'
p1018
(lp1019
g38
asS'proper complimentary laugh'
p1020
(lp1021
g11
asS'key standard'
p1022
(lp1023
g30
asS'content-based text categorization'
p1024
(lp1025
g14
asS'initial code'
p1026
(lp1027
g7
ag8
asS'isbn 0-387-95284-5\nliu'
p1028
(lp1029
g30
asS'restrictions translate'
p1030
(lp1031
g41
asS'[13]\nuranium[edit]\nsouth africa'
p1032
(lp1033
g38
asS'@*\nlondon stock exchange'
p1034
(lp1035
g4
asS'researchers interested'
p1036
(lp1037
g14
asS'mlpack library'
p1038
(lp1039
g30
asS'naval base'
p1040
(lp1041
g25
asS'comply'
p1042
(lp1043
g7
ag8
asS'tectonic setting'
p1044
(lp1045
g38
asS'project gutenberg-tm\nwork'
p1046
(lp1047
g11
asS'consequential damages arising'
p1048
(lp1049
g41
asS'reads commands interactively'
p1050
(lp1051
g41
asS'begin work when--\n\n\xc2\x93sh'
p1052
(lp1053
g11
asS'camp\n\nchapter xv'
p1054
(lp1055
g11
asS'important =\ntimber product'
p1056
(lp1057
g25
asS'proudest moment\n\namy lawrence\n\ntom'
p1058
(lp1059
g11
asS'@end[itemize]\n\n\nunited states\n@begin[itemize]\n   president ronald reagan'
p1060
(lp1061
g4
asS'york cotton exchange'
p1062
(lp1063
g4
asS'kentia palm'
p1064
(lp1065
g25
asS'@end[itemize]\n\n\npakistan\n@begin[itemize]\n   president general zia-ul-haq'
p1066
(lp1067
g4
asS'presiding judge'
p1068
(lp1069
g30
asS'^ biotech business week editors'
p1070
(lp1071
g30
asS'feature sets'
p1072
(lp1073
g14
asS'project\ngutenberg literary archive foundation'
p1074
(lp1075
g11
asS'small-scale enterprises'
p1076
(lp1077
g25
asS'implication'
p1078
(lp1079
g7
ag8
asS'python language'
p1080
(lp1081
g30
asS'understanding data miners'
p1082
(lp1083
g30
asS'effectively expose european users'
p1084
(lp1085
g30
asS'^ mineral commodity summaries\njump'
p1086
(lp1087
g38
asS'truck gardens'
p1088
(lp1089
g25
asS'commercial product offering'
p1090
(lp1091
g7
ag8
asS'analytics'
p1092
(lp1093
g30
asS'uncover information'
p1094
(lp1095
g30
asS'result'
p1096
(lp1097
g7
ag8
asS'chromium\n1'
p1098
(lp1099
g38
asS'average quantity'
p1100
(lp1101
g38
asS'data miner'
p1102
(lp1103
g30
asS'subject'
p1104
(lp1105
g7
ag8
ag41
asS'spencer titley'
p1106
(lp1107
g38
asS'algorithms developed'
p1108
(lp1109
g14
asS'president chiang ching-kuo'
p1110
(lp1111
g4
asS'license file'
p1112
(lp1113
g41
asS'statistical computing'
p1114
(lp1115
g30
asS'largely unexploited =\nreserves'
p1116
(lp1117
g25
asS'personally identifiable information leading'
p1118
(lp1119
g30
asS'data mining\nkdd conference \xe2\x80\x93 acm sigkdd conference'
p1120
(lp1121
g30
asS'document belonged'
p1122
(lp1123
g14
asS'agricultural  products'
p1124
(lp1125
g25
asS'sudden frost\n\ncounter-irritation\n\naunt polly\n\ntom justified'
p1126
(lp1127
g11
asS'early methods'
p1128
(lp1129
g30
asS'hydroelectric potential'
p1130
(lp1131
g25
asS'primarily agricultural =\nprocessing'
p1132
(lp1133
g25
asS'stakeholder dialogue'
p1134
(lp1135
g30
asS'discovery'
p1136
(lp1137
g38
asS'predict future behaviour'
p1138
(lp1139
g30
asS'sharp points curved forward abreast'
p1140
(lp1141
g11
asS'data mining include'
p1142
(lp1143
g30
asS'terms'
p1144
(lp1145
g7
ag8
ag38
asS'expanding manufacturing base'
p1146
(lp1147
g38
asS'produces basic liquid =\nfuels'
p1148
(lp1149
g25
asS'jim told ben rogers'
p1150
(lp1151
g11
asS'united arab emirates'
p1152
(lp1153
g25
asS'impala platinum holdings limited'
p1154
(lp1155
g38
asS'shallower platinum mines'
p1156
(lp1157
g38
asS'chapter xxiii'
p1158
(lp1159
g11
asS'purchase much-needed machinery'
p1160
(lp1161
g38
asS'including artificial intelligence'
p1162
(lp1163
g30
asS'[16]\npre-processing[edit]'
p1164
(lp1165
g30
asS'extent'
p1166
(lp1167
g41
asS'message understanding evaluation'
p1168
(lp1169
g14
asS'generating export revenues'
p1170
(lp1171
g38
asS'readme describes distribution 1'
p1172
(lp1173
g14
asS'widespread strike'
p1174
(lp1175
g38
asS'received'
p1176
(lp1177
g7
ag8
ag41
asS'palladium\n1'
p1178
(lp1179
g38
asS'cocoa exchange'
p1180
(lp1181
g4
asS'text categorization mailing list'
p1182
(lp1183
g14
asS'country'
p1184
(lp1185
g38
asS'bury poor robin hood'
p1186
(lp1187
g11
asS'spliced kite-strings fast'
p1188
(lp1189
g11
asS'uranium-from-gold mining processing plants'
p1190
(lp1191
g38
asS'inform recipients'
p1192
(lp1193
g41
asS'copper exporting countries'
p1194
(lp1195
g4
asS'las vegas'
p1196
(lp1197
g14
asS'receives'
p1198
(lp1199
g7
ag8
asS'accepting unsolicited donations'
p1200
(lp1201
g11
asS'public license practices'
p1202
(lp1203
g41
asS'contribution'
p1204
(lp1205
g7
ag8
asS'expense'
p1206
(lp1207
g7
ag8
asS'workers'
p1208
(lp1209
g38
asS'orgs'
p1210
(lp1211
g14
asS'caused additional facilities'
p1212
(lp1213
g38
asS'shamefaced girl lisped'
p1214
(lp1215
g11
asS'exemplary'
p1216
(lp1217
g7
ag8
asS'data mart'
p1218
(lp1219
g30
asS'silica dust'
p1220
(lp1221
g38
asS'project gutenberg literary archive\nfoundation'
p1222
(lp1223
g11
asS'billion years younger'
p1224
(lp1225
g38
asS'8 billion usd'
p1226
(lp1227
g38
asS'analyzing data'
p1228
(lp1229
g30
asS'largest producers'
p1230
(lp1231
g25
asS'trackless great plains'
p1232
(lp1233
g11
asS'indirectly infringes'
p1234
(lp1235
g41
asS'widow douglas\xc2\x92\ngrounds'
p1236
(lp1237
g11
asS'la paz'
p1238
(lp1239
g25
asS'conference'
p1240
(lp1241
g14
asS'extent applicable law prohibits'
p1242
(lp1243
g41
asS'interesting possibilities'
p1244
(lp1245
g14
asS'irresponsible delirium produced'
p1246
(lp1247
g11
asS'basis'
p1248
(lp1249
g7
ag8
ag41
asS'union'
p1250
(lp1251
g38
asS'original copyright holder'
p1252
(lp1253
g41
asS'small  exports'
p1254
(lp1255
g25
asS'machine\nlearning'
p1256
(lp1257
g14
asS'military =\nsupplies'
p1258
(lp1259
g25
asS'light industrial'
p1260
(lp1261
g25
asS'evidence stood firm'
p1262
(lp1263
g11
asS'facilitates analysis'
p1264
(lp1265
g30
asS'implied warranty'
p1266
(lp1267
g41
asS'alan bond'
p1268
(lp1269
g4
asS'oil palm nuts'
p1270
(lp1271
g25
asS'special interest group'
p1272
(lp1273
g30
asS'deeper'
p1274
(lp1275
g38
asS'automobile =\nproduction'
p1276
(lp1277
g25
asS'important differences'
p1278
(lp1279
g38
asS'1999 european cross industry standard process'
p1280
(lp1281
g30
asS'basalt =\nrock'
p1282
(lp1283
g25
asS'mineral deposits'
p1284
(lp1285
g38
asS'subsequent recipients'
p1286
(lp1287
g7
ag8
asS'sixth attribute'
p1288
(lp1289
g14
asS'acceptable time limit'
p1290
(lp1291
g30
asS'anglo-american corporation'
p1292
(lp1293
g38
asS'________________________________________________________________\n\n@heading[organization codes'
p1294
(lp1295
g4
asS'forest resources =\nresulting'
p1296
(lp1297
g25
asS'[show]\nclustering[show]\ndimensionality reduction[show]\nstructured prediction[show]\nanomaly detection[show]\nneural nets[show]\nreinforcement learning[show]\ntheory[show]\nmachine learning venues[show]\nportal-puzzle'
p1298
(lp1299
g30
asS'computer science\nauthority control'
p1300
(lp1301
g30
asS'exception'
p1302
(lp1303
g41
asS'positive training examples'
p1304
(lp1305
g14
asS'executable work'
p1306
(lp1307
g41
asS'recent problems'
p1308
(lp1309
g38
asS'thy flowery\nwoods'
p1310
(lp1311
g11
asS'castro'
p1312
(lp1313
g4
asS'prime minister mir-hossein mousavi'
p1314
(lp1315
g4
asS'data mining process models'
p1316
(lp1317
g30
asS'ben rogers in--'
p1318
(lp1319
g11
asS'expressly included'
p1320
(lp1321
g41
asS'additional\nterms imposed'
p1322
(lp1323
g11
asS'san juan'
p1324
(lp1325
g25
asS'isbn 978-0-12-374765-5\nponcelet'
p1326
(lp1327
g30
asS'actual methods'
p1328
(lp1329
g30
asS'compliance'
p1330
(lp1331
g7
ag8
ag41
asS'general distributional information'
p1332
(lp1333
g14
asS'larger data sets'
p1334
(lp1335
g30
asS'governor dusan vlatkovic'
p1336
(lp1337
g4
asS'project gutenberg-tm works'
p1338
(lp1339
g11
asS'carnegie group'
p1340
(lp1341
g14
asS'platinum mines'
p1342
(lp1343
g38
asS'iv'
p1344
(lp1345
g7
ag8
asS'ii'
p1346
(lp1347
g7
ag8
asS'hurwitz victory index'
p1348
(lp1349
g30
asS'including direct'
p1350
(lp1351
g7
ag8
asS'machine learning \xe2\x80\x93'
p1352
(lp1353
g30
asS'rotten chest full'
p1354
(lp1355
g11
asS'chapter xi\n\nclose'
p1356
(lp1357
g11
asS'chapter vi\n\nmonday morning found tom sawyer miserable'
p1358
(lp1359
g11
asS'test sets'
p1360
(lp1361
g14
asS'purely supervised learning systems'
p1362
(lp1363
g14
asS'stairs creaked faintly'
p1364
(lp1365
g11
asS'innocents\nbeguiled\n\nchapter iii'
p1366
(lp1367
g11
asS'make'
p1368
(lp1369
g7
ag8
asS'junit 3'
p1370
(lp1371
g7
asS'construe system\n[hayes89'
p1372
(lp1373
g14
asS'indian ocean'
p1374
(lp1375
g25
asS'coal\n1'
p1376
(lp1377
g38
asS'open tag'
p1378
(lp1379
g14
asS'busy sketching rose-tinted pictures'
p1380
(lp1381
g11
asS'commercial  crops include sugar =\ncane'
p1382
(lp1383
g25
asS'finance minister ahmet kurtcebe alptemocin'
p1384
(lp1385
g4
asS'zealand dollar'
p1386
(lp1387
g4
asS'^ sa replaces india'
p1388
(lp1389
g38
asS'independent'
p1390
(lp1391
g41
asS'@*\ninter-government council'
p1392
(lp1393
g4
asS'reasonable attorneys'
p1394
(lp1395
g41
asS'free/open source licenses'
p1396
(lp1397
g30
asS'mediation authority'
p1398
(lp1399
g38
asS'english\n\ncharacter set encoding'
p1400
(lp1401
g11
asS'@*\ngeneral agreement'
p1402
(lp1403
g4
asS'lawrence erlbaum'
p1404
(lp1405
g14
asS'continuous orebodies'
p1406
(lp1407
g38
asS'information science reference'
p1408
(lp1409
g30
asS'story\noriginated'
p1410
(lp1411
g14
asS'ownership'
p1412
(lp1413
g41
asS'}\n\n@phdthesis{lewis91d'
p1414
(lp1415
g14
asS'reached =\nmillion  metric tons'
p1416
(lp1417
g25
asS'\xc2\x92ve helped muff potter'
p1418
(lp1419
g11
asS'reuters stories'
p1420
(lp1421
g14
asS'sigkddd newsletter sigkdd explorations'
p1422
(lp1423
g30
asS'thunder storm\n\nterrible slaughter'
p1424
(lp1425
g11
asS'programs'
p1426
(lp1427
g7
ag8
ag41
asS'enforcing compliance'
p1428
(lp1429
g41
asS'supervised learning'
p1430
(lp1431
g14
asS'@end[itemize]\n\nwest germany\n@begin[itemize]\n   president richard von weizsaecker'
p1432
(lp1433
g4
asS'significant hydropower =\npotential'
p1434
(lp1435
g25
asS'planning minister emilio colombo'
p1436
(lp1437
g4
asS'*text retrieval*'
p1438
(lp1439
g14
asS'injun joe\n_didn\xc2\x92t_ hang'
p1440
(lp1441
g11
asS'threatened constantly'
p1442
(lp1443
g41
asS'electric motors'
p1444
(lp1445
g25
asS'total production'
p1446
(lp1447
g38
asS'phrase \xc2\x93project gutenberg\xc2\x94 appears'
p1448
(lp1449
g11
asS'princeton weekly bulletin'
p1450
(lp1451
g38
asS'food\n        miroslav toman'
p1452
(lp1453
g4
asS'electric power equipment'
p1454
(lp1455
g25
asS'distribute'
p1456
(lp1457
g7
ag8
ag41
asS'@*\ninternational wool textile organisation'
p1458
(lp1459
g4
asS'=\nnatural gas potential'
p1460
(lp1461
g25
asS'rand rebellion\n1'
p1462
(lp1463
g38
asS'ribbon-decked young heart-breakers'
p1464
(lp1465
g11
asS'identify'
p1466
(lp1467
g7
ag8
asS'subspace clustering'
p1468
(lp1469
g30
asS'concrete  =\nproducts'
p1470
(lp1471
g25
asS'widow douglas stayed'
p1472
(lp1473
g11
asS'royalty-free'
p1474
(lp1475
g41
asS'agriculture minister mrs britta schall holberg'
p1476
(lp1477
g4
asS'suspicious incident\n\ninjun joe\xc2\x92'
p1478
(lp1479
g11
asS'feelings investigated--wonderful dream--becky\nthatcher overshadowed--tom'
p1480
(lp1481
g11
asS'support cereal production'
p1482
(lp1483
g25
asS'=\nimportant commercial crop'
p1484
(lp1485
g25
asS'small =\ndeposits'
p1486
(lp1487
g25
asS'commercial data sets'
p1488
(lp1489
g30
asS'babangida'
p1490
(lp1491
g4
asS'related topics\ndata mining'
p1492
(lp1493
g30
asS'finance minister mark eyskens'
p1494
(lp1495
g4
asS'import grain products'
p1496
(lp1497
g25
asS'project gutenberg-tm license'
p1498
(lp1499
g11
asS'deepest mines'
p1500
(lp1501
g38
asS'@*\nislamic conference organisation'
p1502
(lp1503
g4
asS'east'
p1504
(lp1505
g4
asS'unsafe working conditions'
p1506
(lp1507
g38
asS'gold mines'
p1508
(lp1509
g38
asS'project gutenberg-tm electronic works'
p1510
(lp1511
g11
asS'@end[itemize]\n\nturkey\n@begin[itemize]\n   president kenan evren'
p1512
(lp1513
g4
asS'gold field'
p1514
(lp1515
g38
asS'id numbers'
p1516
(lp1517
g14
asS'originally released'
p1518
(lp1519
g41
asS'[ravishing delight overhead'
p1520
(lp1521
g11
asS'non-date noise material'
p1522
(lp1523
g14
asS'clean pine shingle'
p1524
(lp1525
g11
asS'agricultural goods'
p1526
(lp1527
g25
asS'mining weekly'
p1528
(lp1529
g38
asS'\xc2\x92ll ha\xc2\x92nt'
p1530
(lp1531
g11
asS'open source machine learning library'
p1532
(lp1533
g30
asS'crop production'
p1534
(lp1535
g25
asS'salomon bros'
p1536
(lp1537
g4
asS'information discovery'
p1538
(lp1539
g30
asS'commercial contributor'
p1540
(lp1541
g7
ag8
asS'singapore dollar'
p1542
(lp1543
g4
asS'fisheries products'
p1544
(lp1545
g25
asS'de beers operations accounted'
p1546
(lp1547
g38
asS'practical machine learning'
p1548
(lp1549
g30
asS'natural rubber producing countries'
p1550
(lp1551
g4
asS'short sandy hair'
p1552
(lp1553
g11
asS'home\n\naunt polly beguiled'
p1554
(lp1555
g11
asS'steve\nfinch'
p1556
(lp1557
g14
asS'requirements apply'
p1558
(lp1559
g41
asS'trade minister zheng tuobin'
p1560
(lp1561
g4
asS'general secretary'
p1562
(lp1563
g4
asS'people'
p1564
(lp1565
g4
ag14
asS'identify specific individuals'
p1566
(lp1567
g30
asS'actual data mining task'
p1568
(lp1569
g30
asS'provision valid'
p1570
(lp1571
g7
ag8
asS'phil\nhayes gave lists'
p1572
(lp1573
g4
asS'providing continuous roof support'
p1574
(lp1575
g38
asS'frail limbs refused'
p1576
(lp1577
g11
asS'securities dealers automated quotation system'
p1578
(lp1579
g4
asS'resulting executable'
p1580
(lp1581
g41
asS'failure\n\nchapter xxxv'
p1582
(lp1583
g11
asS'good discussion'
p1584
(lp1585
g14
asS'advanced cluster analysis'
p1586
(lp1587
g30
asS'<text type='
p1588
(lp1589
g14
asS'@end[itemize]\n\nchina\n@begin[itemize]\n   president li xiannian'
p1590
(lp1591
g4
asS'data mining\n3'
p1592
(lp1593
g30
asS'@*\nbaltic international freight futures exchange'
p1594
(lp1595
g4
asS'order\nchronologically'
p1596
(lp1597
g14
asS'leading economic indicators'
p1598
(lp1599
g4
asS'data snooping refer'
p1600
(lp1601
g30
asS'corn pone devoured'
p1602
(lp1603
g11
asS'@end[itemize]\n\naustria\n@begin[itemize]\n   president kurt waldheim'
p1604
(lp1605
g4
asS'data\n[lewis94b]'
p1606
(lp1607
g14
asS'type `show'
p1608
(lp1609
g41
asS'wretchedness rise superior'
p1610
(lp1611
g11
asS'@*\ninternational petroleum exchange'
p1612
(lp1613
g4
asS'tourist\nstares longest'
p1614
(lp1615
g11
asS'central =\neurope'
p1616
(lp1617
g25
asS'open text corporation\noracle data mining'
p1618
(lp1619
g30
asS'eric brown'
p1620
(lp1621
g14
asS'project gutenberg ebook tom sawyer ***\n\n*****'
p1622
(lp1623
g11
asS'text categorization methods'
p1624
(lp1625
g14
asS'light  =\nmanubgfacturing'
p1626
(lp1627
g25
asS'peninsula energy'
p1628
(lp1629
g38
asS'predictive model markup language'
p1630
(lp1631
g30
asS'yellow\nhair plaited'
p1632
(lp1633
g11
asS'excluding conflict-of-law provisions'
p1634
(lp1635
g41
asS'permitted'
p1636
(lp1637
g7
ag8
ag41
asS'johnny miller bought'
p1638
(lp1639
g11
asS'limitation'
p1640
(lp1641
g7
ag8
ag41
asS'oil =\ndrilling equipment'
p1642
(lp1643
g25
asS'unstructured information management architecture'
p1644
(lp1645
g30
asS'international conference'
p1646
(lp1647
g30
asS'import large =\nshare'
p1648
(lp1649
g25
asS'automatically'
p1650
(lp1651
g41
asS'hapless half-breed scooped'
p1652
(lp1653
g11
asS'prime minister mohammad khan junejo'
p1654
(lp1655
g4
asS'alum\nbarley\ncarcass\ncastor-meal\ncastor-oil\ncastorseed\ncitruspulp\ncocoa\ncoconut-oil\ncoconut\ncoffee\ncopper\ncopra-cake\ncorn-oil\ncorn\ncornglutenfeed\ncotton \ncotton-meal\ncotton-oil\ncottonseed\nf-cattle\nfishmeal\nflaxseed\ngold\ngrain\ngroundnut\ngroundnut-meal\ngroundnut-oil\niron-steel\nlead\nlin-meal\nlin-oil\nlinseed\nlivestock\nl-cattle\nhog\nlumber\nlupin\nmeal-feed\nnickel\noat\noilseed\norange\npalladium\npalm-meal\npalm-oil\npalmkernel\nplatinum\nplywood\npork-belly\npotato\nrape-meal\nrape-oil\nrapeseed\nred-bean\nrice\nrubber\nrye\nsilk\nsilver\nsorghum\nsoy-meal\nsoy-oil\nsoybean\nstrategic-metal\nsugar\nsun-meal\nsun-oil\nsunseed\ntapioca\ntea\ntin\ntung-oil\ntung\nveg-oil\nwheat\nwool\nzinc\n\n**energy codes'
p1656
(lp1657
g4
asS'industrial =\nequipment'
p1658
(lp1659
g25
asS'@end[itemize]\n\nlibya\n@begin[itemize]\nmuammar gaddafi'
p1660
(lp1661
g4
asS'maximum extent'
p1662
(lp1663
g41
asS'second-largest  tungsten producer'
p1664
(lp1665
g25
asS'basic =\nmetals'
p1666
(lp1667
g25
asS'governor john crow'
p1668
(lp1669
g4
asS'detect colicky symptoms'
p1670
(lp1671
g11
asS'imports large share'
p1672
(lp1673
g25
asS'government end users acquire covered software'
p1674
(lp1675
g41
asS'saint louis smarty'
p1676
(lp1677
g11
asS'south africa showed'
p1678
(lp1679
g38
asS'common development'
p1680
(lp1681
g41
asS'reuters-21578 document'
p1682
(lp1683
g14
asS'support'
p1684
(lp1685
g38
asS'started running'
p1686
(lp1687
g41
asS'=\nvojvodina produce'
p1688
(lp1689
g25
asS'cook =\nislands'
p1690
(lp1691
g25
asS'deepwater =\nports'
p1692
(lp1693
g25
asS'program specifies'
p1694
(lp1695
g41
asS'camdessus'
p1696
(lp1697
g4
asS'court--muff potter\nsaved\n\nchapter xxiv'
p1698
(lp1699
g11
asS'war'
p1700
(lp1701
g38
asS'gold fields'
p1702
(lp1703
g38
asS'free software foundation'
p1704
(lp1705
g41
asS'finance minister gerhard stoltenberg'
p1706
(lp1707
g4
asS'head'
p1708
(lp1709
g4
asS'finance minister erkki liikanen'
p1710
(lp1711
g4
asS'effectively disclaims'
p1712
(lp1713
g7
ag8
asS'@end[itemize]\n\naustralia\n@begin[itemize]\n   prime minister robert'
p1714
(lp1715
g4
asS'form'
p1716
(lp1717
g41
asS'offer'
p1718
(lp1719
g7
ag8
ag41
asS'unduly influence'
p1720
(lp1721
g14
asS'finest dramatic manner'
p1722
(lp1723
g11
asS'south african rand'
p1724
(lp1725
g4
asS'sparckjones76'
p1726
(lp1727
g14
asS'failure'
p1728
(lp1729
g7
ag8
ag41
asS'white house chief'
p1730
(lp1731
g4
asS'original data*'
p1732
(lp1733
g14
asS'governor jean godeaux'
p1734
(lp1735
g4
asS'presidential council karoly nemeth'
p1736
(lp1737
g4
asS'shackly brick store'
p1738
(lp1739
g11
asS'=\nmetal products'
p1740
(lp1741
g25
asS'isbn 978-1-59749-272-0\nweiss'
p1742
(lp1743
g30
asS'bundled'
p1744
(lp1745
g7
asS'portions'
p1746
(lp1747
g41
asS'project gutenberg volunteers'
p1748
(lp1749
g11
asS'dar es salaam'
p1750
(lp1751
g25
asS'belonged to--injun\njoe\xc2\x92'
p1752
(lp1753
g11
asS'confidence betrayed--expects signal punishment\n\nchapter xxiii'
p1754
(lp1755
g11
asS'[citation needed]'
p1756
(lp1757
g38
asS'irene nirenburg'
p1758
(lp1759
g14
asS'project gutenberg literary\narchive foundation\n\nproject gutenberg-tm depends'
p1760
(lp1761
g11
asS'official\nversion posted'
p1762
(lp1763
g11
asS'extent applicable law'
p1764
(lp1765
g41
asS'{muc-3} corpus'
p1766
(lp1767
g14
asS'examples'
p1768
(lp1769
g30
asS'electric power  equipment'
p1770
(lp1771
g25
asS'world pharmaceutical industry'
p1772
(lp1773
g25
asS'lost profits'
p1774
(lp1775
g7
ag8
asS'@end[itemize]\n\ngreece\n@begin[itemize]\n   president christos sartzetakis'
p1776
(lp1777
g4
asS'hayes testset documents made'
p1778
(lp1779
g14
asS'history'
p1780
(lp1781
g38
asS'reuters-21578 collection appeared'
p1782
(lp1783
g14
asS'applied data mining'
p1784
(lp1785
g30
asS'chapter xix\n\ntom arrived'
p1786
(lp1787
g11
asS'exposing alfred temple'
p1788
(lp1789
g11
asS'venue lying'
p1790
(lp1791
g41
asS'night planning vengeance'
p1792
(lp1793
g11
asS'phrase \xc2\x93project\ngutenberg\xc2\x94'
p1794
(lp1795
g11
asS'indirect'
p1796
(lp1797
g7
ag8
asS'chancellor helmut kohl'
p1798
(lp1799
g4
asS'university research project'
p1800
(lp1801
g30
asS'beaded dewdrops stood'
p1802
(lp1803
g11
asS'small reserves'
p1804
(lp1805
g25
asS'camp--fire\ntalk\n\nchapter xiv'
p1806
(lp1807
g11
asS'work =\nforce'
p1808
(lp1809
g25
asS'biggest discovery'
p1810
(lp1811
g38
asS'free software'
p1812
(lp1813
g41
asS'electric =\npower'
p1814
(lp1815
g25
asS'power'
p1816
(lp1817
g38
asS'high performance data mining'
p1818
(lp1819
g30
asS'omission\n\nchapter iv'
p1820
(lp1821
g11
asS'computer science'
p1822
(lp1823
g30
asS'test'
p1824
(lp1825
g14
asS'small black bug appeared'
p1826
(lp1827
g11
asS'vegetable crops'
p1828
(lp1829
g25
asS'blue lights flickering'
p1830
(lp1831
g11
asS'semifinished goods'
p1832
(lp1833
g25
asS'unexploited deposits'
p1834
(lp1835
g25
asS'forming reuters-21578'
p1836
(lp1837
g14
asS'business applications'
p1838
(lp1839
g30
asS'professional home page'
p1840
(lp1841
g14
asS'[13]\nplatinum'
p1842
(lp1843
g38
asS'licks anybody--whacks \xc2\x91em'
p1844
(lp1845
g11
asS'es=\ncap'
p1846
(lp1847
g25
asS'original software prohibiting'
p1848
(lp1849
g41
asS'original hayes split'
p1850
(lp1851
g14
asS'source'
p1852
(lp1853
g41
asS'@*\nkuala lumpur commodity exchange'
p1854
(lp1855
g4
asS'topics\ncategories'
p1856
(lp1857
g14
asS'petroleum exporting countries'
p1858
(lp1859
g4
asS'cross water baffled pursuit'
p1860
(lp1861
g11
asS'modules'
p1862
(lp1863
g41
asS'governed'
p1864
(lp1865
g7
ag8
asS'including warranties'
p1866
(lp1867
g7
ag8
asS'business understanding'
p1868
(lp1869
g30
asS'time'
p1870
(lp1871
g7
ag8
asS'palladium'
p1872
(lp1873
g38
asS'ibm spss modeler'
p1874
(lp1875
g30
asS'@end[itemize]\n\nperu\n@begin[itemize]\n   president alan garcia'
p1876
(lp1877
g4
asS'manubgfactured =\ngoods'
p1878
(lp1879
g25
asS'grating delight intrude'
p1880
(lp1881
g11
asS'input data'
p1882
(lp1883
g30
asS'published numbers'
p1884
(lp1885
g4
asS'san diego-based company'
p1886
(lp1887
g30
asS'place counts'
p1888
(lp1889
g41
asS'man-hoisting shaft'
p1890
(lp1891
g38
asS'witwatersrand basin area'
p1892
(lp1893
g38
asS'solemn hush continued'
p1894
(lp1895
g11
asS'version published'
p1896
(lp1897
g41
asS'200 workers'
p1898
(lp1899
g38
asS'/'
(lp1900
g7
ag30
ag8
ag14
asS'taylor & francis group'
p1901
(lp1902
g30
asS'suitable separate entity'
p1903
(lp1904
g7
ag8
asS'terrific lightning revelled'
p1905
(lp1906
g11
asS'iron ore'
p1907
(lp1908
g38
asS'main crops'
p1909
(lp1910
g25
asS'@end[itemize]\n\nsouth africa\n@begin[itemize]\n   president'
p1911
(lp1912
g4
asS'data fishing'
p1913
(lp1914
g30
asS'modhayes split'
p1915
(lp1916
g14
asS'human indexers'
p1917
(lp1918
g14
asS'john chesley'
p1919
(lp1920
g38
asS'sarney'
p1921
(lp1922
g4
asS'0'
(lp1923
g8
asS'british virgin islands'
p1924
(lp1925
g25
asS'world average'
p1926
(lp1927
g38
asS'gawky big boys'
p1928
(lp1929
g11
asS'**currency codes'
p1930
(lp1931
g4
asS'larger population data set'
p1932
(lp1933
g30
asS'industry minister ilkka suominen'
p1934
(lp1935
g4
asS'acm transactions'
p1936
(lp1937
g14
asS'curiously\ninconsistent pirates fell peacefully'
p1938
(lp1939
g11
asS'previously published results'
p1940
(lp1941
g14
asS'south african national museum'
p1942
(lp1943
g38
asS'terminate'
p1944
(lp1945
g7
ag8
asS'liability'
p1946
(lp1947
g7
ag8
ag41
asS'energy secretary john herrington'
p1948
(lp1949
g4
asS'doctor murmured inarticulately'
p1950
(lp1951
g11
asS'advised'
p1952
(lp1953
g7
ag8
asS'greater length'
p1954
(lp1955
g14
asS'document type declaration line'
p1956
(lp1957
g14
asS'mining instant messaging services'
p1958
(lp1959
g30
asS'supervised learning algorithm'
p1960
(lp1961
g14
asS'united =\nstates'
p1962
(lp1963
g25
asS'commercial computer software'
p1964
(lp1965
g41
asS'satisfy simultaneously'
p1966
(lp1967
g41
asS'cossiga'
p1968
(lp1969
g4
asS'bruce croft'
p1970
(lp1971
g14
asS'mineworkers announced'
p1972
(lp1973
g38
asS'finance minister miklos villanyi'
p1974
(lp1975
g4
asS'ear-splitting explosive bursts'
p1976
(lp1977
g11
asS'military =\nproducts'
p1978
(lp1979
g25
asS'2005 minerals yearbook'
p1980
(lp1981
g38
asS'indexer made'
p1982
(lp1983
g14
asS'subspace clustering models'
p1984
(lp1985
g30
asS'character including'
p1986
(lp1987
g41
asS'york stock exchange'
p1988
(lp1989
g4
asS'makes performance claims'
p1990
(lp1991
g7
ag8
asS'patent claims infringed'
p1992
(lp1993
g41
asS'singing buffalo gals'
p1994
(lp1995
g11
asS'profitable mining started'
p1996
(lp1997
g38
asS'fish catch increasing'
p1998
(lp1999
g25
asS'data mining applications'
p2000
(lp2001
g30
asS'prediction'
p2002
(lp2003
g30
asS'drilling dust'
p2004
(lp2005
g38
asS'miscellaneous manubgfactured =\narticles'
p2006
(lp2007
g25
asS'massive online analysis'
p2008
(lp2009
g30
asS'liability obligation'
p2010
(lp2011
g41
asS'participant software directly'
p2012
(lp2013
g41
asS'automobile assembly'
p2014
(lp2015
g25
asS'preserve free future access'
p2016
(lp2017
g11
asS'sail thro\xc2\x92 _blood_-'
p2018
(lp2019
g11
asS'erasmus jacobs'
p2020
(lp2021
g38
asS'including mines devoted'
p2022
(lp2023
g38
asS'economic cooperation'
p2024
(lp2025
g4
asS'newly discovered diamond fields'
p2026
(lp2027
g38
asS'true negative'
p2028
(lp2029
g14
asS'agriculture minister yannis pottakis'
p2030
(lp2031
g4
asS'acq\nalum\naustdlr\naustral\nbarley\nbfr\nbop'
p2032
(lp2033
g276
asS'ancient river deltas'
p2034
(lp2035
g38
asS'robin hood\n\nmidnight\n\ntom\xc2\x92'
p2036
(lp2037
g11
asS'ostentatiously\nleading potter'
p2038
(lp2039
g11
asS'odd superstitions touched'
p2040
(lp2041
g11
asS'remain'
p2042
(lp2043
g41
asS'}\n\n@inproceedings{apte94b'
p2044
(lp2045
g14
asS'including\nunusual distribution'
p2046
(lp2047
g14
asS'acm sigkdd'
p2048
(lp2049
g30
asS'mining production'
p2050
(lp2051
g38
asS'delimit elements'
p2052
(lp2053
g14
asS'/ 1+ occurrences'
p2054
(lp2055
g14
asS'@end[itemize]\n\niceland\n@begin[itemize]\n   president mrs vigdis finnbogadottir'
p2056
(lp2057
g4
asS'satisfy'
p2058
(lp2059
g41
asS'morning\ntom sawyer wisely'
p2060
(lp2061
g11
asS'crops include cotton'
p2062
(lp2063
g25
asS'transportation'
p2064
(lp2065
g38
asS'petroleum products'
p2066
(lp2067
g38
asS'license published'
p2068
(lp2069
g41
asS'free encyclopedia'
p2070
(lp2071
g30
asS'united nations secretary-general javier perez de cuellar'
p2072
(lp2073
g4
asS'litigation relating'
p2074
(lp2075
g41
asS'lange'
p2076
(lp2077
g4
asS'data records'
p2078
(lp2079
g30
asS'invalid categories'
p2080
(lp2081
g14
asS'based'
p2082
(lp2083
g41
ag14
asS'expressly excluded'
p2084
(lp2085
g41
asS'small specialty =\nmachinery'
p2086
(lp2087
g25
asS'change'
p2088
(lp2089
g41
asS'data mining\ndmkd conference \xe2\x80\x93 research issues'
p2090
(lp2091
g30
asS'postage stamp =\nsales'
p2092
(lp2093
g25
asS'economy exists =\nlargely'
p2094
(lp2095
g25
asS'al meant'
p2096
(lp2097
g14
asS'expressly'
p2098
(lp2099
g7
ag8
asS'duplicate documents removed'
p2100
(lp2101
g14
asS']\n@begin[format]\nafrican development bank'
p2102
(lp2103
g4
asS'machine learning software suite written'
p2104
(lp2105
g30
asS'scarcely perceptible noises began'
p2106
(lp2107
g11
asS'heavy =\nelectrical equipment'
p2108
(lp2109
g25
asS'south east asian nations'
p2110
(lp2111
g4
asS'central bank president dr matyas timar'
p2112
(lp2113
g4
asS'society\n\ncontentment\n\n\n\n\npreface'
p2114
(lp2115
g11
asS'form\n\n    <reuters topics='
p2116
(lp2117
g14
asS'steep clay hill twenty'
p2118
(lp2119
g11
asS'project gutenberg-tm trademark'
p2120
(lp2121
g11
asS'elect'
p2122
(lp2123
g7
ag8
asS'fewer\ndocument'
p2124
(lp2125
g14
asS'gold[edit]\n\nsouth africa mined gold production'
p2126
(lp2127
g38
asS'statistica data miner'
p2128
(lp2129
g30
asS'extract information'
p2130
(lp2131
g30
asS'component-based data mining'
p2132
(lp2133
g30
asS'low =\nlevels'
p2134
(lp2135
g25
asS'industry secretary lord young'
p2136
(lp2137
g4
asS'strong privacy laws'
p2138
(lp2139
g30
asS'forestry minister ignaz kiechle'
p2140
(lp2141
g4
asS'data aggregation involves combining data'
p2142
(lp2143
g30
asS'delamuraz'
p2144
(lp2145
g4
asS'test\nset'
p2146
(lp2147
g14
asS'working'
p2148
(lp2149
g38
asS'liquefied natural gas'
p2150
(lp2151
g25
asS'**commodity codes'
p2152
(lp2153
g4
asS'dmoz\n[show]'
p2154
(lp2155
g30
asS'france'
p2156
(lp2157
g4
asS'open/close tag pair'
p2158
(lp2159
g14
asS'svg\nproblems[show]\nsupervised learning'
p2160
(lp2161
g30
asS'liability obligations'
p2162
(lp2163
g41
asS'refined oil products'
p2164
(lp2165
g25
asS'leading industrial power'
p2166
(lp2167
g25
asS'apparatus claims'
p2168
(lp2169
g41
asS'commercial distribution \n\ncommercial distributors'
p2170
(lp2171
g7
asS'search histories'
p2172
(lp2173
g30
asS'multivariate data sets'
p2174
(lp2175
g30
asS'distribute verbatim copies'
p2176
(lp2177
g41
asS'rights granted'
p2178
(lp2179
g7
ag8
ag41
asS'subsistence farming =\nprevails'
p2180
(lp2181
g25
asS'explicit\ndecision'
p2182
(lp2183
g14
asS'fourth message understanding conference'
p2184
(lp2185
g14
asS'feature tuple representations'
p2186
(lp2187
g14
asS'individual reuters articles marked'
p2188
(lp2189
g14
asS'tin producing countries'
p2190
(lp2191
g4
asS'validity'
p2192
(lp2193
g7
ag8
asS'data extraction'
p2194
(lp2195
g14
asS'information retrieval\nlaboratory'
p2196
(lp2197
g14
asS'free encyclopedia\n\npremier diamond mine'
p2198
(lp2199
g38
asS'6 day long week'
p2200
(lp2201
g38
asS'copyright license set'
p2202
(lp2203
g7
ag8
asS'behalf'
p2204
(lp2205
g7
ag8
asS'published results'
p2206
(lp2207
g14
asS'national military academy'
p2208
(lp2209
g11
asS'ambiguous formatting'
p2210
(lp2211
g14
asS'ibm'
p2212
(lp2213
g7
asS'central bank president stephan koren'
p2214
(lp2215
g4
asS'minds evidently wandering'
p2216
(lp2217
g11
asS'@*\nlondon futures'
p2218
(lp2219
g4
asS'modified'
p2220
(lp2221
g7
ag8
ag41
asS'machine learning'
p2222
(lp2223
g30
ag14
asS'narrower\ncrevices branched'
p2224
(lp2225
g11
asS'</reuters> tags'
p2226
(lp2227
g14
asS'running conveyors'
p2228
(lp2229
g38
asS'text tag appears simply'
p2230
(lp2231
g14
asS'making'
p2232
(lp2233
g41
asS'@*\nfrankfurt stock exchange/bourse'
p2234
(lp2235
g4
asS'cluster analysis'
p2236
(lp2237
g30
asS'individual project gutenberg-tm electronic work'
p2238
(lp2239
g11
asS'adored unknown lived'
p2240
(lp2241
g11
asS'claim'
p2242
(lp2243
g7
ag8
ag41
asS'minerals'
p2244
(lp2245
g38
asS'<text>'
p2246
(lp2247
g14
asS'invalid topic'
p2248
(lp2249
g14
asS'reading[edit]\ncabena'
p2250
(lp2251
g30
asS'reuters-22173 distribution\nincluded'
p2252
(lp2253
g14
asS'licensed'
p2254
(lp2255
g41
asS'vague august realm'
p2256
(lp2257
g11
asS'broke lose'
p2258
(lp2259
g38
asS'extent caused'
p2260
(lp2261
g7
ag8
asS'[25][26]\ndata mining requires data preparation'
p2262
(lp2263
g30
asS'collection consists'
p2264
(lp2265
g14
asS'year = 1990\n}\n\n@incollection{hayes92'
p2266
(lp2267
g14
asS'data mining patterns'
p2268
(lp2269
g30
asS'agriculture minister remigio morales bermudez'
p2270
(lp2271
g4
asS'socialist unity party'
p2272
(lp2273
g4
asS'creative commons attribution-sharealike license'
p2274
(lp2275
g30
ag38
asS'requirements'
p2276
(lp2277
g7
ag8
ag41
asS'arable land =\npotential'
p2278
(lp2279
g25
asS'cuba'
p2280
(lp2281
g4
asS'classification \xe2\x80\xa2 regression'
p2282
(lp2283
g30
asS'1'
(lp2284
g7
ag8
asS'creating\nderivative works based'
p2285
(lp2286
g11
asS'<orgs>'
p2287
(lp2288
g14
asS'data mining group'
p2289
(lp2290
g30
asS'gr=\nain na%'
p2291
(lp2292
g25
asS'polish united workers'
p2293
(lp2294
g4
asS'finance minister suthee singhasaneh'
p2295
(lp2296
g4
asS'economy'
p2297
(lp2298
g38
asS'animal  output'
p2299
(lp2300
g25
asS'product'
p2301
(lp2302
g7
ag8
asS'great interest'
p2303
(lp2304
g14
asS'livestock  include =\nrice'
p2305
(lp2306
g25
asS'solomon islands'
p2307
(lp2308
g25
asS'copyright disclaimer'
p2309
(lp2310
g41
asS'party intellectual property claims'
p2311
(lp2312
g41
asS'pattern recognition\npakdd conference \xe2\x80\x93'
p2313
(lp2314
g30
asS'mines facts'
p2315
(lp2316
g38
asS'menu items--'
p2317
(lp2318
g41
asS'date'
p2319
(lp2320
g7
ag8
ag41
asS'consumer =\ndurables'
p2321
(lp2322
g25
asS'data'
p2323
(lp2324
g7
ag8
asS'young lady teachers \xc2\x93showed'
p2325
(lp2326
g11
asS'splendid elegant bible--'
p2327
(lp2328
g11
asS'south african police service'
p2329
(lp2330
g38
asS'exchange commission chairman david'
p2331
(lp2332
g4
asS'@end[itemize]\n\nphilippines\n@begin[itemize]\n   president mrs corazon aquino'
p2333
(lp2334
g4
asS'data mining algorithm'
p2335
(lp2336
g30
asS'market overview'
p2337
(lp2338
g38
asS'area ultimately contributing'
p2339
(lp2340
g38
asS'^ mineral commodity summaries\n^ jump'
p2341
(lp2342
g38
asS'educational data mining\ninfocom conference \xe2\x80\x93 ieee infocom\nicdm conference \xe2\x80\x93 ieee international conference'
p2343
(lp2344
g30
asS'classification task'
p2345
(lp2346
g14
asS'modapte split'
p2347
(lp2348
g14
asS'remove documents'
p2349
(lp2350
g14
asS'de beers consolidated mines company'
p2351
(lp2352
g38
asS'makes original software'
p2353
(lp2354
g41
asS'rolled products'
p2355
(lp2356
g25
asS'tag appears'
p2357
(lp2358
g14
asS'definitions'
p2359
(lp2360
g7
ag8
asS'law enforcement purposes'
p2361
(lp2362
g30
asS'temporal databases\nwsdm conference \xe2\x80\x93 acm conference'
p2363
(lp2364
g30
asS'textual request'
p2365
(lp2366
g14
asS'se'
p2367
(lp2368
g7
ag8
asS'make restrictions'
p2369
(lp2370
g41
asS'officials meet'
p2371
(lp2372
g38
asS'* legal\ncategories'
p2373
(lp2374
g14
asS'strike'
p2375
(lp2376
g38
asS'full project gutenberg license'
p2377
(lp2378
g11
asS'de beers'
p2379
(lp2380
g38
asS'entity'
p2381
(lp2382
g7
ag8
ag41
asS'furious blast roared'
p2383
(lp2384
g11
asS'[edit]\nmain article'
p2385
(lp2386
g30
asS'single\nstar quivered'
p2387
(lp2388
g11
asS'publicly display'
p2389
(lp2390
g7
ag8
asS'rowing cautiously upstream'
p2391
(lp2392
g11
asS'story belonged'
p2393
(lp2394
g14
asS'energy minister subroto'
p2395
(lp2396
g4
asS'police'
p2397
(lp2398
g38
asS'eser'
p2399
(lp2400
g4
asS'international conferences'
p2401
(lp2402
g30
asS'companies categories\nassigned'
p2403
(lp2404
g14
asS'united kingdom'
p2405
(lp2406
g25
asS'tort'
p2407
(lp2408
g7
ag8
asS'industrial diamonds'
p2409
(lp2410
g38
asS'jeff thatcher immediately'
p2411
(lp2412
g11
asS'<title>\nelement'
p2413
(lp2414
g14
asS'rivers platinum mine'
p2415
(lp2416
g38
asS'including negligence'
p2417
(lp2418
g7
ag8
ag41
asS'agriculture minister mohammad ibrahim jaffrey baluch'
p2419
(lp2420
g4
asS'entity analytics products'
p2421
(lp2422
g30
asS'modified versions'
p2423
(lp2424
g41
asS'hydropo=\nwer'
p2425
(lp2426
g25
asS'documents lack topics categories'
p2427
(lp2428
g14
asS'computer sciences'
p2429
(lp2430
g30
asS'miss harper\nhugged'
p2431
(lp2432
g11
asS'large =\nfood deficit'
p2433
(lp2434
g25
asS'governor satoshi sumita'
p2435
(lp2436
g4
asS'drilling'
p2437
(lp2438
g38
asS'sir ernest oppenheimer'
p2439
(lp2440
g38
asS'president declares week'
p2441
(lp2442
g38
asS'economy minister panayotis roumeliotis'
p2443
(lp2444
g4
asS'produce html reports'
p2445
(lp2446
g30
asS'59 temple place'
p2447
(lp2448
g41
asS'provision'
p2449
(lp2450
g7
ag8
asS'exact order'
p2451
(lp2452
g14
asS'united states geological survey'
p2453
(lp2454
g38
asS'steve finch'
p2455
(lp2456
g14
asS'26 september 1997\n\n                         david'
p2457
(lp2458
g14
asS'swam quartering\nupstream'
p2459
(lp2460
g11
asS'largest =\nfish catch'
p2461
(lp2462
g25
asS'current month customarily upset'
p2463
(lp2464
g11
asS'knowledge management\ndmin conference \xe2\x80\x93 international conference'
p2465
(lp2466
g30
asS'global surveillance disclosure'
p2467
(lp2468
g30
asS'subsequent contributor'
p2469
(lp2470
g7
ag8
asS'black-haired young lady'
p2471
(lp2472
g11
asS'\xc5\xa1tina\ndansk\ndeutsch\neesti\n\xce\x95\xce\xbb\xce\xbb\xce\xb7\xce\xbd\xce\xb9\xce\xba\xce\xac\nespa\xc3\xb1ol\neuskara\n\xd9\x81\xd8\xa7\xd8\xb1\xd8\xb3\xdb\x8c\nfran\xc3\xa7ais\n\xed\x95\x9c\xea\xb5\xad\xec\x96\xb4\n\xe0\xa4\xb9\xe0\xa4\xbf\xe0\xa4\xa8\xe0\xa5\x8d\xe0\xa4\xa6\xe0\xa5\x80\nhrvatski\nbahasa indonesia\nitaliano\n\xd7\xa2\xd7\x91\xd7\xa8\xd7\x99\xd7\xaa\n\xe0\xb2\x95\xe0\xb2\xa8\xe0\xb3\x8d\xe0\xb2\xa8\xe0\xb2\xa1\nlatvie\xc5\xa1'
p2473
(lp2474
g30
asS'uk\nquantitative structure\xe2\x80\x93activity relationship\nsurveillance / mass surveillance'
p2475
(lp2476
g30
asS'original authors'
p2477
(lp2478
g41
asS'refined =\npetroleum products'
p2479
(lp2480
g25
asS'light  manubgfacturing'
p2481
(lp2482
g25
asS'rare =\nwoods'
p2483
(lp2484
g25
asS'ppt'
p2485
(lp2486
S'sample\\presentation2.ppt'
p2487
aS'C:\\bharat\\Work\\OneDrive - NCSU\\github\\tag_based_file_manager\\sample\\presentation2.ppt'
p2488
aS'sample\\dir1\\mtech.ppt'
p2489
aS'C:\\bharat\\Work\\OneDrive - NCSU\\github\\tag_based_file_manager\\sample\\dir1\\mtech.ppt'
p2490
aS'sample\\dir2\\prism.ppt'
p2491
aS'C:\\bharat\\Work\\OneDrive - NCSU\\github\\tag_based_file_manager\\sample\\dir2\\prism.ppt'
p2492
asS'cotton  piece =\ngoods'
p2493
(lp2494
g25
asS'contributor includes'
p2495
(lp2496
g7
ag8
asS'deepest mine'
p2497
(lp2498
g38
asS'half-cured leaf tobacco'
p2499
(lp2500
g11
asS'data mining task'
p2501
(lp2502
g30
asS'year'
p2503
(lp2504
g7
ag8
asS'distributor'
p2505
(lp2506
g41
asS'physical act'
p2507
(lp2508
g41
asS'young gentlemen\nteachers \xc2\x93showed'
p2509
(lp2510
g11
asS'plans'
p2511
(lp2512
g38
asS'canada'
p2513
(lp2514
g4
asS'option offer warranty protection'
p2515
(lp2516
g41
asS'griqualand west'
p2517
(lp2518
g38
asS'patent infringement litigation'
p2519
(lp2520
g41
asS'hayes90b discusses'
p2521
(lp2522
g14
asS'@end[itemize]\n\ninternational monetary fund managing director michel camdessus'
p2523
(lp2524
g4
asS'prespecified categories'
p2525
(lp2526
g14
asS'small livestock sector'
p2527
(lp2528
g25
asS'durable consumer  goods'
p2529
(lp2530
g25
asS'project\ngutenberg-tm trademark'
p2531
(lp2532
g11
asS'data file format'
p2533
(lp2534
g14
asS'diamond production'
p2535
(lp2536
g38
asS'/ 20+ occurrences  \n************  **********   ********************   ******************** \nexchanges        39                32                       7\norgs             56                32                       9\npeople          267               114                      15\nplaces          175               147                      60\ntopics          135               120                      57'
p2537
(lp2538
g14
asS'change free software--'
p2539
(lp2540
g41
asS'acm sigir'
p2541
(lp2542
g14
asS'wholly unpeopled forest'
p2543
(lp2544
g11
asS'injun joe poke'
p2545
(lp2546
g11
asS'@*\neuropean coal'
p2547
(lp2548
g4
asS'finance minister boris gostyev'
p2549
(lp2550
g4
asS'copyright holder'
p2551
(lp2552
g41
asS'theory'
p2553
(lp2554
g7
ag8
asS'finding documents'
p2555
(lp2556
g14
asS'intellectual property infringement'
p2557
(lp2558
g11
asS'possibility'
p2559
(lp2560
g7
ag8
asS'external links\netymology[edit]'
p2561
(lp2562
g30
asS'commerce secretary'
p2563
(lp2564
g4
asS'categorization'
p2565
(lp2566
g14
asS'@*\ninternational cocoa organisation'
p2567
(lp2568
g4
asS'exhausting good time playing \xc2\x93hispy\xc2\x94'
p2569
(lp2570
g11
asS'remainder'
p2571
(lp2572
g7
ag8
asS'explicit specifications'
p2573
(lp2574
g14
asS'statement\n\ntail piece\n\nhuck transformed\n\ncomfortable'
p2575
(lp2576
g11
asS'number stated      number'
p2577
(lp2578
g4
asS'machinery =\nmanubgfactured goods'
p2579
(lp2580
g25
asS'language'
p2581
(lp2582
g14
asS'references\nhistory[edit]'
p2583
(lp2584
g38
asS'@*\ninternational development association'
p2585
(lp2586
g4
asS'semitropical produce'
p2587
(lp2588
g25
asS'automatically terminate'
p2589
(lp2590
g41
asS'british'
p2591
(lp2592
g38
asS'interpreted age'
p2593
(lp2594
g38
asS'effectively excludes'
p2595
(lp2596
g7
ag8
asS'clipperton island'
p2597
(lp2598
g25
asS'original hayes\nresults'
p2599
(lp2600
g14
asS'generally adequate supplies ='
p2601
(lp2602
g25
asS'rubbishy common things--specially'
p2603
(lp2604
g11
asS'origin'
p2605
(lp2606
g38
asS'parastatal industry minister alfredo del mazo'
p2607
(lp2608
g4
asS'megaputer intelligence'
p2609
(lp2610
g30
asS'animal products =\ninclude pork'
p2611
(lp2612
g25
asS'proprietary data-mining software'
p2613
(lp2614
g30
asS'international atomic energy agency director-general hans blix'
p2615
(lp2616
g4
asS'@*\ninternational monetary fund'
p2617
(lp2618
g4
asS'distribute copies'
p2619
(lp2620
g7
ag8
ag41
asS'hipaa requires individuals'
p2621
(lp2622
g30
asS'talk page'
p2623
(lp2624
g30
asS'temporarily'
p2625
(lp2626
g38
asS'written agreement'
p2627
(lp2628
g41
asS'directly'
p2629
(lp2630
g41
asS'graveyard\n\nforewarnings\n\ndisturbing muff\xc2\x92'
p2631
(lp2632
g11
asS'preferred form'
p2633
(lp2634
g41
asS'hard rock'
p2635
(lp2636
g38
asS'independent module'
p2637
(lp2638
g41
asS'raw version'
p2639
(lp2640
g14
asS'language independent automated learning'
p2641
(lp2642
g14
asS'academic community'
p2643
(lp2644
g30
asS'early south african economy'
p2645
(lp2646
g38
asS'phrase \xc2\x93project gutenberg\xc2\x94'
p2647
(lp2648
g11
asS'work written'
p2649
(lp2650
g41
asS'acquired'
p2651
(lp2652
g41
asS'2'
(lp2653
g7
ag8
asS'market research assessment tool'
p2654
(lp2655
g30
asS'[19]\nchromium[edit]\nchromium'
p2656
(lp2657
g38
asS'full\nproject gutenberg-tm license'
p2658
(lp2659
g11
asS'south africamining industry'
p2660
(lp2661
g38
asS'west'
p2662
(lp2663
g38
asS'machine =\nbuilding'
p2664
(lp2665
g25
asS'atlantic ocean'
p2666
(lp2667
g25
asS'mining'
p2668
(lp2669
g30
ag38
asS'receive copies directly'
p2670
(lp2671
g41
asS'assigned topics\ncategories'
p2672
(lp2673
g14
asS'norfolk island'
p2674
(lp2675
g25
asS'caicos islands'
p2676
(lp2677
g25
asS'data mining software'
p2678
(lp2679
g30
asS'prior modifications'
p2680
(lp2681
g41
asS'australian dollar'
p2682
(lp2683
g4
asS'entire distribution'
p2684
(lp2685
g14
asS'copy'
p2686
(lp2687
g7
ag8
asS'holder'
p2688
(lp2689
g41
asS'month        = jul\n}\n\n@article{sparckjones76'
p2690
(lp2691
g14
asS'standard test collections'
p2692
(lp2693
g14
asS'court order'
p2694
(lp2695
g41
asS'permit linking proprietary applications'
p2696
(lp2697
g41
asS'}\n\n@inproceedings{lewis92e'
p2698
(lp2699
g14
asS'accordance'
p2700
(lp2701
g7
ag8
asS'data understanding'
p2702
(lp2703
g30
asS'}\n\n@inproceedings{lewis92d'
p2704
(lp2705
g14
asS'platinum mine workers'
p2706
(lp2707
g38
asS'@*\neconomic commission'
p2708
(lp2709
g4
asS'ibn abdulaziz'
p2710
(lp2711
g4
asS'[edit]\nafrican exploration mining'
p2712
(lp2713
g38
asS'main street roaring huzzah'
p2714
(lp2715
g11
asS'adb-africa\nadb-asia\naibd\naid\nanrpc\nasean\natpc\nbis\ncipec\ncomecon\nec\neca\necafe\nece\necla\necsc\necwa\nefta\neib\nemcf\nescap\neuratom\nfao\ngatt\ngcc\ngeplacea\niaea\niata\nicco\nico-coffee\nico-islam\nida\niea\niisi\nilo\nilzsg\nimco\nimf\ninro\nirsg\nisa\nitc\niwc-whale\niwc-wheat\niwcc\niws\niwto\nlafta\nmfa\noapec\noecd\nopec'
p2716
(lp2717
g271
asS'represents'
p2718
(lp2719
g38
asS'manual\nknowledge engineering'
p2720
(lp2721
g14
asS'animal feedstuffs'
p2722
(lp2723
g25
asS'@*\nworld health organisation'
p2724
(lp2725
g4
asS'metal =\ngoods'
p2726
(lp2727
g25
asS'state power company'
p2728
(lp2729
g38
asS'final feather broke'
p2730
(lp2731
g11
asS'biggest diamond miner'
p2732
(lp2733
g38
asS'naked skin represented\nflesh-colored \xc2\x93tights\xc2\x94'
p2734
(lp2735
g11
asS'agriculture minister gerrit braks'
p2736
(lp2737
g4
asS'metal =\nproducts'
p2738
(lp2739
g25
asS'trade director-general \n     arthur dunkel'
p2740
(lp2741
g4
asS'medium'
p2742
(lp2743
g41
asS'contributions set'
p2744
(lp2745
g7
ag8
asS'solomon =\nislands'
p2746
(lp2747
g25
asS'formatted text'
p2748
(lp2749
g14
asS'ever-present potential hazard'
p2750
(lp2751
g38
asS'contributor disclaims'
p2752
(lp2753
g7
ag8
asS'text categorization models'
p2754
(lp2755
g14
asS'data mining\necml-pkdd conference \xe2\x80\x93 european conference'
p2756
(lp2757
g30
asS'coal'
p2758
(lp2759
g38
asS'decision rules'
p2760
(lp2761
g30
ag14
asS'equipment'
p2762
(lp2763
g7
ag8
asS'database mining workstation'
p2764
(lp2765
g30
asS'small cottage industries'
p2766
(lp2767
g25
asS'village paper\npublished biographical sketches'
p2768
(lp2769
g11
asS'federal tax identification number'
p2770
(lp2771
g11
asS'finance minister gunnar berge'
p2772
(lp2773
g4
asS'computer software'
p2774
(lp2775
g41
asS'mike\ntopliss'
p2776
(lp2777
g14
asS'avoid inconsistency'
p2778
(lp2779
g7
ag8
asS'prime minister harri holkeri'
p2780
(lp2781
g4
asS'consumer price index'
p2782
(lp2783
g4
asS'permit royalty-free redistribution'
p2784
(lp2785
g41
asS'koivisto'
p2786
(lp2787
g4
asS'protected =\nsector'
p2788
(lp2789
g25
asS'snug nooks carpeted'
p2790
(lp2791
g11
asS'big milum apple'
p2792
(lp2793
g11
asS'looked exceedingly improved'
p2794
(lp2795
g11
asS'america'
p2796
(lp2797
g7
ag8
asS'^ electricity crisis puts 6'
p2798
(lp2799
g38
asS'switches\nnotably diminished'
p2800
(lp2801
g11
asS'twenty studying scholars soothed'
p2802
(lp2803
g11
asS'largest consumers'
p2804
(lp2805
g38
asS'energy minister arne oeien'
p2806
(lp2807
g4
asS'sale'
p2808
(lp2809
g7
ag8
ag41
asS'idea/'
p2810
(lp2811
g997
asS'united states killed'
p2812
(lp2813
g30
asS'state bank'
p2814
(lp2815
g4
asS'intelligent high-volume text processing'
p2816
(lp2817
g14
asS'information privacy legislation'
p2818
(lp2819
g30
asS'deputy prime minister'
p2820
(lp2821
g4
asS'laws'
p2822
(lp2823
g7
ag8
ag41
asS'classification problems based'
p2824
(lp2825
g30
asS'@*\neuropean atomic energy community'
p2826
(lp2827
g4
asS'governor wasim aun jaffrey'
p2828
(lp2829
g4
asS'cross industry standard process'
p2830
(lp2831
g30
asS'show'
p2832
(lp2833
g41
asS'date='
p2834
(lp2835
g38
asS'pursuant'
p2836
(lp2837
g41
asS'licenses granted'
p2838
(lp2839
g7
ag8
ag41
asS'ghastly stage-fright seized'
p2840
(lp2841
g11
asS'ventilating air circulated'
p2842
(lp2843
g38
asS'discovered'
p2844
(lp2845
g38
asS'full notice'
p2846
(lp2847
g41
asS'wide range'
p2848
(lp2849
g41
asS'contest validity'
p2850
(lp2851
g41
asS'copyrighted'
p2852
(lp2853
g7
ag8
ag41
asS'public domain print editions means'
p2854
(lp2855
g11
asS'palm  kernels'
p2856
(lp2857
g25
asS'juan de nova island'
p2858
(lp2859
g25
asS'journal data mining'
p2860
(lp2861
g30
asS'primary research journal'
p2862
(lp2863
g30
asS'gold--bitter luck\n\nchapter xxvii'
p2864
(lp2865
g11
asS'hit south africa mines'
p2866
(lp2867
g38
asS'mubarak'
p2868
(lp2869
g4
asS'title'
p2870
(lp2871
g7
ag8
asS'structured stakeholder dialogue 2013'
p2872
(lp2873
g30
asS'text mining software'
p2874
(lp2875
g30
asS'machine\nlearning methods'
p2876
(lp2877
g14
asS'small offshore oil =\ndeposits'
p2878
(lp2879
g25
asS'yugoslav republic ='
p2880
(lp2881
g25
asS'physically performing source distribution'
p2882
(lp2883
g41
asS'tall\nsons speedily dressed'
p2884
(lp2885
g11
asS'22 files begins'
p2886
(lp2887
g14
asS'finance minister onno ruding'
p2888
(lp2889
g4
asS'machine building'
p2890
(lp2891
g25
asS'palm =\nproducts'
p2892
(lp2893
g25
asS'african rainbow minerals'
p2894
(lp2895
g38
asS'distributed project\ngutenberg-tm ebooks'
p2896
(lp2897
g11
asS'applicable laws'
p2898
(lp2899
g7
ag8
asS'joakin ruiz'
p2900
(lp2901
g38
asS'big eyes told tom'
p2902
(lp2903
g11
asS'patent claims'
p2904
(lp2905
g41
asS'produces bananas'
p2906
(lp2907
g25
asS'[17] diamond production rose'
p2908
(lp2909
g38
asS'deng xiaoping'
p2910
(lp2911
g4
asS'case including portions thereof'
p2912
(lp2913
g41
asS'small shipyards'
p2914
(lp2915
g25
asS'time\nintervals'
p2916
(lp2917
g14
asS'**economic indicator codes'
p2918
(lp2919
g4
asS'central african =\nrepublic'
p2920
(lp2921
g25
asS'conjunction'
p2922
(lp2923
g7
ag8
asS'principal products'
p2924
(lp2925
g25
asS'common control'
p2926
(lp2927
g41
asS'latin america'
p2928
(lp2929
g4
asS'source file'
p2930
(lp2931
g41
asS'finally asked--dimly\ndreading'
p2932
(lp2933
g11
asS'indemnified contributor'
p2934
(lp2935
g7
ag8
asS'important part'
p2936
(lp2937
g38
asS'full project gutenberg-tm license'
p2938
(lp2939
g11
asS'versions'
p2940
(lp2941
g7
ag8
ag41
asS'dominant sector'
p2942
(lp2943
g25
asS'fresh-crowned hero fell'
p2944
(lp2945
g11
asS'slew poor guy'
p2946
(lp2947
g11
asS'ethics[edit]'
p2948
(lp2949
g30
asS'xml-based language developed'
p2950
(lp2951
g30
asS'target data set'
p2952
(lp2953
g30
asS'economy minister youssri wali'
p2954
(lp2955
g4
asS'fully  exploited'
p2956
(lp2957
g25
asS'south african nuclear energy'
p2958
(lp2959
g38
asS'user'
p2960
(lp2961
g41
asS'safe place tom examined'
p2962
(lp2963
g11
asS'end users'
p2964
(lp2965
g7
ag8
asS'additional details'
p2966
(lp2967
g14
asS'attached'
p2968
(lp2969
g7
asS'forrester research'
p2970
(lp2971
g30
asS'total diamond output'
p2972
(lp2973
g38
asS'agricultural =\nproducts'
p2974
(lp2975
g25
asS'readme describes version 1'
p2976
(lp2977
g14
asS'real-time big data stream mining'
p2978
(lp2979
g30
asS'refrigeration key'
p2980
(lp2981
g38
asS'food crops include =\nsorghum'
p2982
(lp2983
g25
asS'producer =\ngoods'
p2984
(lp2985
g25
asS'@end[itemize]\n\nussr'
p2986
(lp2987
g4
asS'offshore  banking'
p2988
(lp2989
g25
asS'fails'
p2990
(lp2991
g7
ag8
asS'subroutine library'
p2992
(lp2993
g41
asS'saint peter port'
p2994
(lp2995
g25
asS'sneeze\n\ncornered\n\nalarming discoveries\n\ntom'
p2996
(lp2997
g11
asS'european =\ncountries'
p2998
(lp2999
g25
asS'@*\ninternational air transport association'
p3000
(lp3001
g4
asS'extreme pressure'
p3002
(lp3003
g38
asS'3'
(lp3004
g7
ag8
asS'central bank governor jose luis machinea'
p3005
(lp3006
g4
asS'significantly contributing'
p3007
(lp3008
g38
asS'world nuclear association'
p3009
(lp3010
g38
asS'diamonds'
p3011
(lp3012
g38
asS'offshore banking'
p3013
(lp3014
g25
asS'import'
p3015
(lp3016
g7
ag8
asS'young doctor robinson'
p3017
(lp3018
g11
asS'program `gnomovision'
p3019
(lp3020
g41
asS'widow douglas\xc2\x92 splendid hospitality'
p3021
(lp3022
g11
asS'ma 02111-1307 usa'
p3023
(lp3024
g41
asS'palladium mine production worldwide'
p3025
(lp3026
g38
asS'notice'
p3027
(lp3028
g41
asS'marketplace surveys\n10'
p3029
(lp3030
g30
asS'fisheries =\npotential'
p3031
(lp3032
g25
asS'modified program'
p3033
(lp3034
g41
asS'ty coon'
p3035
(lp3036
g41
asS'intellectual property rights'
p3037
(lp3038
g7
ag8
ag41
asS'monica cellio'
p3039
(lp3040
g14
asS'metal products'
p3041
(lp3042
g25
asS'research     \n                     lewis@research'
p3043
(lp3044
g14
asS'free programs'
p3045
(lp3046
g41
asS'named\nentities'
p3047
(lp3048
g14
asS'article'
p3049
(lp3050
g30
asS'whitespace structure'
p3051
(lp3052
g14
asS'originates'
p3053
(lp3054
g7
ag8
asS'fresh cut flowers'
p3055
(lp3056
g25
asS'non-exclusive'
p3057
(lp3058
g7
ag8
asS'background[edit]'
p3059
(lp3060
g30
asS'johnny\ntold jim hollis'
p3061
(lp3062
g11
asS'international sale'
p3063
(lp3064
g41
asS'national security agency'
p3065
(lp3066
g30
asS'patent claim'
p3067
(lp3068
g41
asS'data mining software packages'
p3069
(lp3070
g30
asS'free software distribution system'
p3071
(lp3072
g41
asS'contract'
p3073
(lp3074
g7
ag8
asS'gold mining rate'
p3075
(lp3076
g38
asS'rights hereunder'
p3077
(lp3078
g41
asS'finance minister wang bingqian'
p3079
(lp3080
g4
asS'refined =\nproducts'
p3081
(lp3082
g25
asS'perceptible twinkle peeping'
p3083
(lp3084
g11
asS'government end users'
p3085
(lp3086
g41
asS'library statically'
p3087
(lp3088
g41
asS'interface definition files'
p3089
(lp3090
g41
asS'data\n[show]'
p3091
(lp3092
g30
asS'biggest palladium producers'
p3093
(lp3094
g38
asS'fish catch =\nreached'
p3095
(lp3096
g25
asS'economy minister juan sourrouille'
p3097
(lp3098
g4
asS'/news/leaders/21600685-nigerias-suddenly-supersized-economy-indeed-wonder-so-are-its-still-huge\njump'
p3099
(lp3100
g38
asS'animal products'
p3101
(lp3102
g25
asS'learning'
p3103
(lp3104
g30
asS'data mining'
p3105
(lp3106
g30
asS'raised privacy concerns'
p3107
(lp3108
g30
asS'finance minister gustavo petricioli'
p3109
(lp3110
g4
asS'database management'
p3111
(lp3112
g30
asS'economy minister kostas simitis'
p3113
(lp3114
g4
asS'united states\n8'
p3115
(lp3116
g30
asS'guest editorial'
p3117
(lp3118
g14
asS'\xc2\x94--tom lionized\n\nchapter'
p3119
(lp3120
g11
asS'greenstone belts'
p3121
(lp3122
g38
asS'treasury minister guiliano amato'
p3123
(lp3124
g4
asS'data dredging'
p3125
(lp3126
g30
asS'nearby bushveld igneous complex'
p3127
(lp3128
g38
asS'poor huck stood abashed'
p3129
(lp3130
g11
asS'parties hereto'
p3131
(lp3132
g7
ag8
asS'license agreement'
p3133
(lp3134
g7
ag8
asS'combined'
p3135
(lp3136
g7
ag8
asS'upstreet \xc2\x91bout midnight'
p3137
(lp3138
g11
asS'usama fayyad launched'
p3139
(lp3140
g30
asS'digitisation project'
p3141
(lp3142
g30
asS'principal food  =\ncoconuts'
p3143
(lp3144
g25
asS'human\nbeings'
p3145
(lp3146
g14
asS'steal\nfurtive glances'
p3147
(lp3148
g11
asS'ha\xc2\x92nted house\n\ninjun joe'
p3149
(lp3150
g11
asS'gnu general public license'
p3151
(lp3152
g41
asS'offered'
p3153
(lp3154
g7
ag8
asS'clustered representations'
p3155
(lp3156
g14
asS'minister'
p3157
(lp3158
g4
asS'geological survey'
p3159
(lp3160
g38
asS'@end[itemize]\n\n\nfrance\n@begin[itemize]\n   president francois mitterrand'
p3161
(lp3162
g4
asS'lonmin bloodbath'
p3163
(lp3164
g38
asS'governor carlo ciampi'
p3165
(lp3166
g4
asS'case'
p3167
(lp3168
g7
ag8
ag41
asS'data mining provided'
p3169
(lp3170
g30
asS'essential part'
p3171
(lp3172
g41
asS'parties remain'
p3173
(lp3174
g41
asS'including contributions'
p3175
(lp3176
g7
ag8
asS'lonrho plc'
p3177
(lp3178
g4
asS'locally exploitable =\ncoal'
p3179
(lp3180
g25
asS'late steamer big missouri worked'
p3181
(lp3182
g11
asS'international trade'
p3183
(lp3184
g4
asS'plain simple stealing--'
p3185
(lp3186
g11
asS'statistician tyler viglen'
p3187
(lp3188
g30
asS'notice contained'
p3189
(lp3190
g41
asS'thousands rushed'
p3191
(lp3192
g38
asS'sinuous avenue holding'
p3193
(lp3194
g11
asS'including =\ncloth'
p3195
(lp3196
g25
asS'animal =\nproducts'
p3197
(lp3198
g25
asS'biotech business week'
p3199
(lp3200
g30
asS'steve weinstein'
p3201
(lp3202
g14
asS'net exporter'
p3203
(lp3204
g25
asS'jarvis island'
p3205
(lp3206
g25
asS'text filtering'
p3207
(lp3208
g14
asS'scenes re-enacted\n\nchapter ix'
p3209
(lp3210
g11
asS'geological survey estimated'
p3211
(lp3212
g38
asS'mantle sourced intrusions'
p3213
(lp3214
g38
asS'27 november 2007'
p3215
(lp3216
g38
asS'solemn situation--grave subjects introduced--injun joe\nexplains\n\nchapter'
p3217
(lp3218
g11
asS'amusement grew stale'
p3219
(lp3220
g11
asS'documents removed'
p3221
(lp3222
g14
asS'participant'
p3223
(lp3224
g41
asS'knowledge discovery software'
p3225
(lp3226
g30
asS'author'
p3227
(lp3228
g41
asS'pay'
p3229
(lp3230
g7
ag8
asS'granted'
p3231
(lp3232
g41
asS'surveillance'
p3233
(lp3234
g30
asS'awful reg\xc2\x92lar'
p3235
(lp3236
g11
asS'close-buttoned blue cloth\nroundabout'
p3237
(lp3238
g11
asS'chapter xxxiv\n\nhuck'
p3239
(lp3240
g11
asS'information management special reports'
p3241
(lp3242
g30
asS'document'
p3243
(lp3244
g41
asS'privatisation  \n       edouard balladur'
p3245
(lp3246
g4
asS'trade minister alberto vera la rose'
p3247
(lp3248
g4
asS'gold[3]'
p3249
(lp3250
g38
asS'@*\nzurich stock exchange/bourse'
p3251
(lp3252
g4
asS'web search engine'
p3253
(lp3254
g30
asS'coir rope  bgfactory'
p3255
(lp3256
g25
asS'passion fruit products'
p3257
(lp3258
g25
asS'gregory piatetsky-shapiro coined'
p3259
(lp3260
g30
asS'section 2'
p3261
(lp3262
g7
ag8
asS'director'
p3263
(lp3264
g4
asS'violent confrontations occurred'
p3265
(lp3266
g38
asS'running'
p3267
(lp3268
g41
asS'net  exports'
p3269
(lp3270
g25
asS'mere aggregation'
p3271
(lp3272
g41
asS'steel institute'
p3273
(lp3274
g4
asS'initial license steward'
p3275
(lp3276
g41
asS'frequent unpredictability'
p3277
(lp3278
g38
asS'south africa'
p3279
(lp3280
g38
asS'food tropical =\nfruits'
p3281
(lp3282
g25
asS'central bank governor wim duisenberg'
p3283
(lp3284
g4
asS'costs'
p3285
(lp3286
g7
ag8
ag41
asS'economic planning agency eiichi nakao'
p3287
(lp3288
g4
asS'related terms data dredging'
p3289
(lp3290
g30
asS'talk \xc2\x91bout these-yer dead\npeople'
p3291
(lp3292
g11
asS'dead noonday heat'
p3293
(lp3294
g11
asS'modlewis\nsplit'
p3295
(lp3296
g14
asS'@*\nsecurities exchange'
p3297
(lp3298
g4
asS'constructing artificial flowers'
p3299
(lp3300
g11
asS'charms work till midnight'
p3301
(lp3302
g11
asS'analyzing unstructured content'
p3303
(lp3304
g30
asS'extensive natural gas =\nreserves'
p3305
(lp3306
g25
asS'second-largest reserves'
p3307
(lp3308
g38
asS'initial grant'
p3309
(lp3310
g41
asS'actions'
p3311
(lp3312
g41
asS'210 cu ft/'
p3313
(lp3314
g38
asS'small =\nshops producing handicraft items'
p3315
(lp3316
g25
asS'cease'
p3317
(lp3318
g7
ag8
asS'computer science department'
p3319
(lp3320
g14
asS'computer systems'
p3321
(lp3322
g14
asS'material terms'
p3323
(lp3324
g7
ag8
asS'omissions'
p3325
(lp3326
g7
ag8
asS'enterprise class text analytics solution'
p3327
(lp3328
g30
asS'announcement'
p3329
(lp3330
g41
asS'energy minister marcel masse'
p3331
(lp3332
g4
asS'miscellaneous manubgfactured =\nitems'
p3333
(lp3334
g25
asS'data mining companies'
p3335
(lp3336
g30
asS'data mining methods'
p3337
(lp3338
g30
asS'60 day period'
p3339
(lp3340
g41
asS'original licensor'
p3341
(lp3342
g41
asS'produces buses'
p3343
(lp3344
g25
asS'treasury secretary james baker'
p3345
(lp3346
g4
asS'coastal =\nclimate'
p3347
(lp3348
g25
asS'hide som\xc2\x92ers'
p3349
(lp3350
g11
asS'widow\n\nchapter xxx'
p3351
(lp3352
g11
asS'central bank governor jose tavares moreia'
p3353
(lp3354
g4
asS'4'
(lp3355
g7
ag8
asS'@*\nlondon metal exchange'
p3356
(lp3357
g4
asS'premier li peng'
p3358
(lp3359
g4
asS'written offer'
p3360
(lp3361
g41
asS'rolling mill =\nproducts'
p3362
(lp3363
g25
asS'central bank governor rusdu saracoglu'
p3364
(lp3365
g4
asS'end tag'
p3366
(lp3367
g14
asS'development\n    secretary-general jean-claude paye'
p3368
(lp3369
g4
asS'ongoing supply levels\njump'
p3370
(lp3371
g38
asS'software distributed'
p3372
(lp3373
g7
ag8
ag41
asS'data warehouse'
p3374
(lp3375
g30
asS'industrial  =\nproducts'
p3376
(lp3377
g25
asS'woolly comet moving'
p3378
(lp3379
g11
asS'beneficial ownership'
p3380
(lp3381
g41
asS'generic text processing task'
p3382
(lp3383
g14
asS'opentext\xe2\x84\xa2 big data analytics'
p3384
(lp3385
g30
asS'commercial item'
p3386
(lp3387
g41
asS'negro minstrel shows'
p3388
(lp3389
g11
asS'recipient'
p3390
(lp3391
g7
ag8
ag41
asS'drawing protests'
p3392
(lp3393
g38
asS'video \xe2\x80\x93 originally developed'
p3394
(lp3395
g30
asS'january 2013\njump'
p3396
(lp3397
g38
asS'net food importer'
p3398
(lp3399
g25
asS'commercial distribution\n\ncommercial distributors'
p3400
(lp3401
g8
asS'generally small family businesses ='
p3402
(lp3403
g25
asS'yugoslav =\nrepublic'
p3404
(lp3405
g25
asS'remaining hundred yards'
p3406
(lp3407
g11
asS'ieee conference'
p3408
(lp3409
g14
asS'amy chatted happily'
p3410
(lp3411
g11
asS'unrealistically high'
p3412
(lp3413
g14
asS'black velvet doublet'
p3414
(lp3415
g11
asS'grants'
p3416
(lp3417
g41
asS'financial mail'
p3418
(lp3419
g38
asS'main pg search facility'
p3420
(lp3421
g11
asS'tasman pacific minerals'
p3422
(lp3423
g38
asS'sam dobbins'
p3424
(lp3425
g14
asS'project gutenberg literary archive foundation'
p3426
(lp3427
g11
asS'2002 mineral industry report'
p3428
(lp3429
g38
asS'semifinished metal products'
p3430
(lp3431
g25
asS'\xc2\x93barlow\xc2\x94 knife worth twelve'
p3432
(lp3433
g11
asS'unctad'
p3434
(lp3435
g271
asS'trade negotiations clayton yeutter'
p3436
(lp3437
g4
asS'state bank board chairman viktor dementsev'
p3438
(lp3439
g4
asS'information retrieval'
p3440
(lp3441
g14
asS'processed food items'
p3442
(lp3443
g25
asS'james hacker'
p3444
(lp3445
g41
asS'missing information'
p3446
(lp3447
g30
asS'prime minister willi stoph'
p3448
(lp3449
g4
asS'rocks'
p3450
(lp3451
g38
asS'lower timber output'
p3452
(lp3453
g25
asS'provided'
p3454
(lp3455
g7
ag8
ag38
asS'generosity--aunt polly weakens\n\nchapter xiii'
p3456
(lp3457
g11
asS'encyclop\xc3\xa6dia britannica'
p3458
(lp3459
g30
asS'blue lights slipping'
p3460
(lp3461
g11
asS'extensive atomic =\ndevelopment'
p3462
(lp3463
g25
asS'project\ngutenberg etext'
p3464
(lp3465
g25
asS'machine  =\ntools'
p3466
(lp3467
g25
asS'national\n          treasury mrs chen muhua'
p3468
(lp3469
g4
asS'sid lay nightly watching'
p3470
(lp3471
g11
asS'american statistician[43]\ngoebel & gruenwald 1999'
p3472
(lp3473
g30
asS'drive four-horse passenger-coaches twenty'
p3474
(lp3475
g11
asS'consumer =\nproducts'
p3476
(lp3477
g25
asS'2017-01-08'
p3478
(lp3479
g38
asS'programming language'
p3480
(lp3481
g30
asS'anglo gold ashanti'
p3482
(lp3483
g38
asS'independent modules'
p3484
(lp3485
g41
asS'business'
p3486
(lp3487
g30
asS'topics field'
p3488
(lp3489
g14
asS']\n@begin[itemize]\nargentina\n@begin[itemize]\n   president raul alfonsin'
p3490
(lp3491
g4
asS'prime minister karoly grosz'
p3492
(lp3493
g4
asS'\xc2\x93ha\xc2\x92nted\xc2\x94 house'
p3494
(lp3495
g11
asS'gold mining'
p3496
(lp3497
g38
asS'_wouldn\xc2\x92t_ lie'
p3498
(lp3499
g11
asS'thailand'
p3500
(lp3501
g4
asS'pertinent obligations'
p3502
(lp3503
g41
asS'$588 billion usd gross domestic product'
p3504
(lp3505
g38
asS'license represents'
p3506
(lp3507
g41
asS'navassa island'
p3508
(lp3509
g25
asS'@*\nmontreal stock exchange'
p3510
(lp3511
g4
asS'temporal structure'
p3512
(lp3513
g14
asS'prime minister giovanni goria'
p3514
(lp3515
g4
asS'forestry minister filippo maria pandolfi'
p3516
(lp3517
g4
asS'@*\nlondon international financial futures exchange'
p3518
(lp3519
g4
asS'million metric =\ntons ranks india'
p3520
(lp3521
g25
asS'industrial applications'
p3522
(lp3523
g38
asS'prime minister rajiv gandhi'
p3524
(lp3525
g4
asS'practicable'
p3526
(lp3527
g7
ag8
asS'prime minister andreas papandreou'
p3528
(lp3529
g4
asS'act'
p3530
(lp3531
g41
asS'work\n\nchapter xii'
p3532
(lp3533
g11
asS'data mining tool provided'
p3534
(lp3535
g30
asS'machine learning software'
p3536
(lp3537
g30
asS'minister rilwanu lukman'
p3538
(lp3539
g4
asS'covers prediction models'
p3540
(lp3541
g30
asS'free program'
p3542
(lp3543
g41
asS'@*\namsterdam stock exchange/bourse'
p3544
(lp3545
g4
asS'trademark'
p3546
(lp3547
g41
asS'agricultural machinery  =\nassembly'
p3548
(lp3549
g25
asS'copies'
p3550
(lp3551
g41
asS'united states'
p3552
(lp3553
g7
ag8
ag25
asS'early 20th century'
p3554
(lp3555
g38
asS'extracting information'
p3556
(lp3557
g30
asS'william cohen'
p3558
(lp3559
g14
asS'incident caused south african president thabo mbeki'
p3560
(lp3561
g38
asS'howland island'
p3562
(lp3563
g25
asS'cut power supplies'
p3564
(lp3565
g38
asS'zealand\n@begin[itemize]\n   prime minister david lange'
p3566
(lp3567
g4
asS'court costs'
p3568
(lp3569
g41
asS'agricultural =\nproduction'
p3570
(lp3571
g25
asS'delicious fancies time quickly glides'
p3572
(lp3573
g11
asS'area'
p3574
(lp3575
g38
asS'management sciences'
p3576
(lp3577
g30
asS'sgml dtd'
p3578
(lp3579
g14
asS'salt lake city'
p3580
(lp3581
g11
asS'forest =\nlands'
p3582
(lp3583
g25
asS'half envied jimmy\nhodges'
p3584
(lp3585
g11
asS'low'
p3586
(lp3587
g38
asS'@end[itemize]\n\n\nluxembourg\n@begin[itemize]\n   prime minister'
p3588
(lp3589
g4
asS'spec\xc2\x92 mars tom gwine'
p3590
(lp3591
g11
asS'central bank governor hermud skaanland'
p3592
(lp3593
g4
asS'assumes'
p3594
(lp3595
g7
ag8
asS'annex areas'
p3596
(lp3597
g38
asS'10645/3672 split'
p3598
(lp3599
g14
asS'central bank governor arifin siregar'
p3600
(lp3601
g4
asS'complete'
p3602
(lp3603
g41
asS'verbatim'
p3604
(lp3605
g41
asS'consistent application'
p3606
(lp3607
g41
asS'estoppel'
p3608
(lp3609
g7
ag8
asS'google book settlement'
p3610
(lp3611
g30
asS'executable versions'
p3612
(lp3613
g41
asS'sgml tools'
p3614
(lp3615
g14
asS'agriculture minister michael'
p3616
(lp3617
g4
asS'additional terms'
p3618
(lp3619
g41
ag38
asS'laws regulating\ncharities'
p3620
(lp3621
g11
asS'results\nincomparable'
p3622
(lp3623
g14
asS'licensed free'
p3624
(lp3625
g41
asS'director gbnewby@pglaf'
p3626
(lp3627
g11
asS'small deposits'
p3628
(lp3629
g25
asS'fred damerau'
p3630
(lp3631
g14
asS'malaysian ringitt'
p3632
(lp3633
g4
asS'[10][11]\ncoal[edit]\n\nsouth africa coal production'
p3634
(lp3635
g38
asS'retrieved 2016-08-04'
p3636
(lp3637
g38
asS'bassas da india'
p3638
(lp3639
g25
asS'applicable law'
p3640
(lp3641
g7
ag8
ag41
asS'training/test divisions'
p3642
(lp3643
g14
asS'readme file'
p3644
(lp3645
g14
asS'construc=\ntion materials'
p3646
(lp3647
g25
asS'negligible mineral =\nresources'
p3648
(lp3649
g25
asS'licensees extend'
p3650
(lp3651
g41
asS'site'
p3652
(lp3653
g38
asS'addition* analyze subsets'
p3654
(lp3655
g14
asS'chapter xxxii\n\ntuesday afternoon'
p3656
(lp3657
g11
asS'refined =\nsugar'
p3658
(lp3659
g25
asS'contributors'
p3660
(lp3661
g7
ag8
asS'master\n\nvain pleading\n\ntail piece'
p3662
(lp3663
g11
asS'advanced analytics\necdm conference \xe2\x80\x93 european conference'
p3664
(lp3665
g30
asS'general'
p3666
(lp3667
g7
ag8
ag41
asS'energy secretary cecil parkinson'
p3668
(lp3669
g4
asS'offerings greatly helped'
p3670
(lp3671
g11
asS'close link'
p3672
(lp3673
g30
asS'file'
p3674
(lp3675
g41
asS'economy minister philippe maystadt'
p3676
(lp3677
g4
asS'shortages include fats'
p3678
(lp3679
g25
asS'field badly worsted'
p3680
(lp3681
g11
asS'agriculture minister john wise'
p3682
(lp3683
g4
asS'history & acknowledgements'
p3684
(lp3685
g14
asS'@end[itemize]\n\n\nunited kingdom\n@begin[itemize]\n   prime minister margaret thatcher'
p3686
(lp3687
g4
asS'higher geothermal gradient'
p3688
(lp3689
g38
asS'wide support'
p3690
(lp3691
g30
asS'coral sea islands'
p3692
(lp3693
g25
asS'brown coal =\nmining'
p3694
(lp3695
g25
asS'=\ndwindling natural gas'
p3696
(lp3697
g25
asS'bond corp'
p3698
(lp3699
g4
asS'republic attempted'
p3700
(lp3701
g38
asS'program proprietary'
p3702
(lp3703
g41
asS'receive source code'
p3704
(lp3705
g41
asS'additional 78 miners'
p3706
(lp3707
g38
asS'indemnify'
p3708
(lp3709
g7
ag8
asS'state courts'
p3710
(lp3711
g41
asS'economy minister martin bangemann'
p3712
(lp3713
g4
asS'common source'
p3714
(lp3715
g30
asS'security surrounding access'
p3716
(lp3717
g30
asS'deepwater ports'
p3718
(lp3719
g25
asS'includes'
p3720
(lp3721
g7
ag8
ag41
asS'@*\nstockholm stock exchange/bourse'
p3722
(lp3723
g4
asS'wiley interdisciplinary reviews'
p3724
(lp3725
g30
asS'forest land'
p3726
(lp3727
g25
asS'included'
p3728
(lp3729
g7
ag8
ag41
asS'industry group'
p3730
(lp3731
g38
asS'month = jun'
p3732
(lp3733
g14
asS'haunted house--sleepy ghosts--'
p3734
(lp3735
g11
asS'@*\neuropean community'
p3736
(lp3737
g4
asS'**corporate codes'
p3738
(lp3739
g4
asS'large share'
p3740
(lp3741
g25
asS'company information'
p3742
(lp3743
g14
asS'international settlements'
p3744
(lp3745
g4
asS'mining accidents caused 70'
p3746
(lp3747
g38
asS'consumer  durables'
p3748
(lp3749
g25
asS'data mining & analysis'
p3750
(lp3751
g30
asS'[28]\nworking conditions[edit]\nconditions'
p3752
(lp3753
g38
asS'wayback machine'
p3754
(lp3755
g30
asS'computer failure'
p3756
(lp3757
g41
asS'natural language workshop'
p3758
(lp3759
g14
asS'east  european countries'
p3760
(lp3761
g25
asS'cotton piece goods'
p3762
(lp3763
g25
asS'original'
p3764
(lp3765
g41
asS'annual pacific-asia conference'
p3766
(lp3767
g30
asS'@*\nsingapore stock exchange'
p3768
(lp3769
g4
asS'work stoppage'
p3770
(lp3771
g41
asS'examples include'
p3772
(lp3773
g14
asS'central bank governor dimitris halikias'
p3774
(lp3775
g4
asS'lewis\n3-dec-96'
p3776
(lp3777
g4
asS'industry minister hajime tamura'
p3778
(lp3779
g4
asS'caused'
p3780
(lp3781
g7
ag8
asS'text categorization'
p3782
(lp3783
g14
asS'small numbers'
p3784
(lp3785
g25
asS'project\ngutenberg-tm work'
p3786
(lp3787
g11
asS'data management aspects'
p3788
(lp3789
g30
asS'expressly set'
p3790
(lp3791
g7
ag8
asS'@end[itemize]\n\n\nsaudi arabia\n@begin[itemize]\n   head'
p3792
(lp3793
g4
asS'\xc2\x93becuz thunder--\xc2\x94\n\n\xc2\x93hark'
p3794
(lp3795
g11
asS'muffled boom\ntroubled'
p3796
(lp3797
g11
asS'additional contact information'
p3798
(lp3799
g11
asS'major deposits'
p3800
(lp3801
g25
asS'claim rights'
p3802
(lp3803
g41
asS'young detectives\n\nchapter xxviii'
p3804
(lp3805
g11
asS'cross-validation\nprocedures'
p3806
(lp3807
g14
asS'retrieved 2007-11-27'
p3808
(lp3809
g38
asS'machine  tools'
p3810
(lp3811
g25
asS'pure data'
p3812
(lp3813
g30
asS'program'
p3814
(lp3815
g7
ag8
asS'source code form'
p3816
(lp3817
g7
ag8
ag41
asS'mother hopkins told'
p3818
(lp3819
g11
asS'revealing thought\nflashed'
p3820
(lp3821
g11
asS'south africa inof'
p3822
(lp3823
g38
asS'gem stones'
p3824
(lp3825
g38
asS'small-scale consumer goods'
p3826
(lp3827
g25
asS'publicly perform'
p3828
(lp3829
g7
ag8
asS'arable land'
p3830
(lp3831
g25
asS'infringement'
p3832
(lp3833
g7
ag8
asS'gold resources'
p3834
(lp3835
g38
asS'initial contributor'
p3836
(lp3837
g7
ag8
asS'feature\nfi'
p3838
(lp3839
g14
asS'reliable statistical inferences'
p3840
(lp3841
g30
asS'south africa\n[show]'
p3842
(lp3843
g38
asS'experiments reported'
p3844
(lp3845
g14
asS'medium customarily'
p3846
(lp3847
g7
ag8
ag41
asS'puzzled amazement awoke'
p3848
(lp3849
g11
asS'project gutenberg-tm\nconcept'
p3850
(lp3851
g11
asS'article ends'
p3852
(lp3853
g14
asS'state bank president horst kaminsky'
p3854
(lp3855
g4
asS'condition'
p3856
(lp3857
g7
ag8
asS'ideal situation'
p3858
(lp3859
g14
asS'participant software'
p3860
(lp3861
g41
asS'regression \xe2\x80\x93 attempts'
p3862
(lp3863
g30
asS'forestry resources extensively  =\nexploited'
p3864
(lp3865
g25
asS'database mining'
p3866
(lp3867
g30
asS'khomeini'
p3868
(lp3869
g4
asS'=\nmediterranean climate permits'
p3870
(lp3871
g25
asS'recipient institutes patent litigation'
p3872
(lp3873
g7
ag8
asS'figures 2006\njump'
p3874
(lp3875
g38
asS'electric power'
p3876
(lp3877
g25
asS'energy minister abel salinas'
p3878
(lp3879
g4
asS'training\nset'
p3880
(lp3881
g14
asS'industrial materials'
p3882
(lp3883
g25
asS'meagre latin class recited'
p3884
(lp3885
g11
asS'corrugated  cardboard boxes'
p3886
(lp3887
g25
asS'data =\nprocessing equipment'
p3888
(lp3889
g25
asS'@end[itemize]\n\negypt\n@begin[itemize]\n   president hosni mubarak'
p3890
(lp3891
g4
asS'upload file\nspecial pages\npermanent link\npage information\nwikidata item\ncite'
p3892
(lp3893
g30
ag38
asS'licenses granted hereunder'
p3894
(lp3895
g7
ag8
asS'agricultural products'
p3896
(lp3897
g25
asS'world leader'
p3898
(lp3899
g38
asS'bruce\ncroft'
p3900
(lp3901
g14
asS'anc secretary-general gwede mantashe announced'
p3902
(lp3903
g38
asS'concept drift tool'
p3904
(lp3905
g30
asS'predictive data mining'
p3906
(lp3907
g30
asS'classification \xe2\x80\x93'
p3908
(lp3909
g30
asS'rights set'
p3910
(lp3911
g41
asS'176                 175\n  people                        269                 267\n\n    total                       540                 537\n    total stated'
p3912
(lp3913
g4
asS'young man finally blurted'
p3914
(lp3915
g11
asS'south sandwich =\nislands'
p3916
(lp3917
g25
asS'temperate-zone =\ncrops'
p3918
(lp3919
g25
asS'commercial damages'
p3920
(lp3921
g41
asS'section'
p3922
(lp3923
g7
ag8
asS'java programming language'
p3924
(lp3925
g30
asS'fatalities'
p3926
(lp3927
g38
asS'license document'
p3928
(lp3929
g41
asS'large data sets'
p3930
(lp3931
g30
asS'automated data processing'
p3932
(lp3933
g30
asS'version'
p3934
(lp3935
g7
ag8
ag41
asS'invalid people mancera'
p3936
(lp3937
g14
asS'international bond dealers'
p3938
(lp3939
g4
asS'public'
p3940
(lp3941
g41
asS'[24] sibayane gold'
p3942
(lp3943
g38
asS'sstd symposium \xe2\x80\x93 symposium'
p3944
(lp3945
g30
asS'places categories'
p3946
(lp3947
g14
asS'<exchanges>'
p3948
(lp3949
g14
asS'involves database'
p3950
(lp3951
g30
asS'project gutenberg ebook tom sawyer ***\n\nproduced'
p3952
(lp3953
g11
asS'modify'
p3954
(lp3955
g7
ag8
asS'finance minister michael wilson'
p3956
(lp3957
g4
asS'doctype lewis system'
p3958
(lp3959
g14
asS'provider violates fair information practices'
p3960
(lp3961
g30
asS'patent applicable'
p3962
(lp3963
g7
asS'mulroney'
p3964
(lp3965
g4
asS'bruce croft received'
p3966
(lp3967
g4
asS'initial developer'
p3968
(lp3969
g41
asS'}\n\n@inproceedings{lewis91e'
p3970
(lp3971
g14
asS'jury trial'
p3972
(lp3973
g7
ag8
asS'subsequently acquired'
p3974
(lp3975
g41
asS'ground dominated'
p3976
(lp3977
g38
asS'addresses government rights'
p3978
(lp3979
g41
asS'pinch-bug\n\nsid\n\ndentistry\n\nhuckleberry finn\n\nmother hopkins\n\nresult'
p3980
(lp3981
g11
asS'northern mariana islands'
p3982
(lp3983
g25
asS'caribbean sugar exporting countries]'
p3984
(lp3985
g4
asS'data pre-processing'
p3986
(lp3987
g30
asS'losses'
p3988
(lp3989
g7
ag8
ag41
asS'important =\nsector'
p3990
(lp3991
g25
asS'infringe'
p3992
(lp3993
g7
ag8
asS'prior'
p3994
(lp3995
g41
asS'finance secretary mario brodersohn'
p3996
(lp3997
g4
asS'informs licensees'
p3998
(lp3999
g7
ag8
asS'published'
p4000
(lp4001
g7
ag8
ag41
asS'action'
p4002
(lp4003
g7
ag8
asS'large net =\nimporter'
p4004
(lp4005
g25
asS'crops =\ninclude coffee'
p4006
(lp4007
g25
asS'required notices'
p4008
(lp4009
g41
asS'palestine liberation organisation'
p4010
(lp4011
g4
asS'lubbers'
p4012
(lp4013
g4
asS'vague figures approached'
p4014
(lp4015
g11
asS'deadliest incident'
p4016
(lp4017
g38
asS'africa'
p4018
(lp4019
g4
ag38
asS'thatcher'
p4020
(lp4021
g4
asS'central bank chairman jonas'
p4022
(lp4023
g4
asS'sets explicitly includes'
p4024
(lp4025
g14
asS'entity based'
p4026
(lp4027
g7
ag8
asS'dominican =\nrepublic'
p4028
(lp4029
g25
asS'heating oil/gas oil'
p4030
(lp4031
g4
asS'retrieved 2008-06-11'
p4032
(lp4033
g38
asS'agricultural land'
p4034
(lp4035
g25
asS'data engineering'
p4036
(lp4037
g30
asS'chapter xxii\n\ntom joined'
p4038
(lp4039
g11
asS'documents defined'
p4040
(lp4041
g14
asS'executable'
p4042
(lp4043
g41
asS'state oil company'
p4044
(lp4045
g4
asS'reasonable manner'
p4046
(lp4047
g7
ag8
ag41
asS'*text categorization*'
p4048
(lp4049
g14
asS'@begin[itemize]\n   president andrei gromyko'
p4050
(lp4051
g4
asS'[13] palladium'
p4052
(lp4053
g38
asS'category fields'
p4054
(lp4055
g14
asS'czech =\nrepublic'
p4056
(lp4057
g25
asS'6'
(lp4058
g7
ag8
asS'@*\nnational association'
p4059
(lp4060
g4
asS'minimum extent'
p4061
(lp4062
g7
ag8
asS'tasman rsa'
p4063
(lp4064
g38
asS'diamond'
p4065
(lp4066
g38
asS'execute classification analyses'
p4067
(lp4068
g30
asS'platinum group metals'
p4069
(lp4070
g25
ag38
asS'@*\ninternational iron'
p4071
(lp4072
g4
asS'@end[itemize]\n\neuropean community commission\n@begin[itemize]\n   president jacques delors'
p4073
(lp4074
g4
asS'kimberley diamond strike'
p4075
(lp4076
g38
asS'feature\ndistribution'
p4077
(lp4078
g14
asS'isbn 978-0-521-83657-9\nguo'
p4079
(lp4080
g30
asS'challenging\nproperties'
p4081
(lp4082
g14
asS'reuters data'
p4083
(lp4084
g14
asS'=\ncentral europe'
p4085
(lp4086
g25
asS'advanced analytics technology'
p4087
(lp4088
g30
asS'cereal production'
p4089
(lp4090
g25
asS'prime minister charles haughey'
p4091
(lp4092
g4
asS'wore\ngreen goggles'
p4093
(lp4094
g11
asS'granted tax exempt status'
p4095
(lp4096
g11
asS'genetic algorithms'
p4097
(lp4098
g30
asS'counterclaim'
p4099
(lp4100
g7
ag8
asS'chicken-hearted home-sickness\nclinging'
p4101
(lp4102
g11
asS'agriculture secretary richard lyng'
p4103
(lp4104
g4
asS'search results clustering framework'
p4105
(lp4106
g30
asS'gathering statistical information'
p4107
(lp4108
g14
asS'light  iron =\nwork'
p4109
(lp4110
g25
asS'microsoft analysis services'
p4111
(lp4112
g30
asS'data management/database conferences'
p4113
(lp4114
g30
asS'project gutenberg-tm collection'
p4115
(lp4116
g11
asS'tom-aunt polly decides'
p4117
(lp4118
g11
asS'exploring expedition--trouble commences--lost'
p4119
(lp4120
g11
asS'construct=\nion materials'
p4121
(lp4122
g25
asS'martens'
p4123
(lp4124
g4
asS'wikipedia\ncommunity portal\nrecent'
p4125
(lp4126
g30
ag38
asS'gardens provide =\nvegetables'
p4127
(lp4128
g25
asS'jeff told johnny baker'
p4129
(lp4130
g11
asS'appropriately publish'
p4131
(lp4132
g41
asS'accomplish ten thousand years'
p4133
(lp4134
g11
asS'precious sunday-school privileges'
p4135
(lp4136
g11
asS'multiple computing nodes'
p4137
(lp4138
g30
asS'accept'
p4139
(lp4140
g7
ag8
asS'states'
p4141
(lp4142
g7
ag8
asS'rock hoisting shaft'
p4143
(lp4144
g38
asS'arab petroleum exporting countries'
p4145
(lp4146
g4
asS'data mining tools'
p4147
(lp4148
g30
asS'massive oaken door stood\nunbarred'
p4149
(lp4150
g11
asS'pacific ocean'
p4151
(lp4152
g25
asS'duly cautious reply'
p4153
(lp4154
g11
asS'lua programming language'
p4155
(lp4156
g30
asS'information'
p4157
(lp4158
g41
asS'implied warranties'
p4159
(lp4160
g7
ag8
ag41
asS'feature tuples'
p4161
(lp4162
g14
asS'small local consumer goods'
p4163
(lp4164
g25
asS'deputy minister'
p4165
(lp4166
g4
asS'acts'
p4167
(lp4168
g7
ag8
asS'northern district'
p4169
(lp4170
g41
asS'mental acrobatics--attending sunday--school--'
p4171
(lp4172
g11
asS'agreement steward reserves'
p4173
(lp4174
g7
ag8
asS'perfectly\nround white things'
p4175
(lp4176
g11
asS'balefully interesting object'
p4177
(lp4178
g11
asS'common public license'
p4179
(lp4180
g7
asS'kdd international conference'
p4181
(lp4182
g30
asS'mining companies misrepresenting'
p4183
(lp4184
g38
asS'prevailing juvenile\nsuperstition'
p4185
(lp4186
g11
asS'computer science dept'
p4187
(lp4188
g14
asS'reg\xc2\x92lar ripper'
p4189
(lp4190
g11
asS'founding chairman'
p4191
(lp4192
g38
asS'contributor version'
p4193
(lp4194
g41
asS'intended'
p4195
(lp4196
g7
ag8
asS'automated production =\nsystems'
p4197
(lp4198
g25
asS'{van rijsbergen}'
p4199
(lp4200
g14
asS'project gutenberg ebook'
p4201
(lp4202
g11
asS'@end[itemize]\n\ntaiwan\n@begin[itemize]\n   president lee teng-hui'
p4203
(lp4204
g4
asS'[39][40]\n2012 lonmin strike[edit]'
p4205
(lp4206
g38
asS'agriculture minister carlos dominguez'
p4207
(lp4208
g4
asS'3 iron-ore supplier'
p4209
(lp4210
g38
asS'document analysis'
p4211
(lp4212
g14
asS'including correction'
p4213
(lp4214
g14
asS'10 times estimate'
p4215
(lp4216
g38
asS'computers\nincluding obsolete'
p4217
(lp4218
g11
asS'previous levels'
p4219
(lp4220
g38
asS'excluding licenses granted'
p4221
(lp4222
g41
asS'land area suitable'
p4223
(lp4224
g25
asS'intellij idea installation home'
p4225
(lp4226
g7
asS'process uranium'
p4227
(lp4228
g38
asS'previous\nresearch'
p4229
(lp4230
g14
asS'central african  =\nrepublic'
p4231
(lp4232
g25
asS'additional tags occur'
p4233
(lp4234
g14
asS'responsibility'
p4235
(lp4236
g7
ag8
asS'knowledge discovery\ndsaa conference \xe2\x80\x93 ieee international conference'
p4237
(lp4238
g30
asS'=\nfinancial activities'
p4239
(lp4240
g25
asS'aunt polly stood surprised'
p4241
(lp4242
g11
asS'retrieval'
p4243
(lp4244
g14
asS'complete source code means'
p4245
(lp4246
g41
asS'secretary-general kenneth dadzie'
p4247
(lp4248
g4
asS'made generous contributions'
p4249
(lp4250
g41
asS'document\nbelonged'
p4251
(lp4252
g14
asS'category labels'
p4253
(lp4254
g14
asS'worldbank'
p4255
(lp4256
g271
asS'collected data'
p4257
(lp4258
g30
asS'port moresby'
p4259
(lp4260
g25
asS'held'
p4261
(lp4262
g41
asS'proce=\nssed copper'
p4263
(lp4264
g25
asS'european commission'
p4265
(lp4266
g30
asS'south african national union'
p4267
(lp4268
g38
asS'finance minister robert chien'
p4269
(lp4270
g4
asS'el=\nectrical equipment'
p4271
(lp4272
g25
asS'technical =\nservices'
p4273
(lp4274
g25
asS'test collection'
p4275
(lp4276
g14
asS'feature\nsets'
p4277
(lp4278
g14
asS'camp\n\nchapter xvi'
p4279
(lp4280
g11
asS'original hayes experiments'
p4281
(lp4282
g14
asS'anomaly detection'
p4283
(lp4284
g30
asS'chapter viii\n\ntom dodged'
p4285
(lp4286
g11
asS'annual fish catch averages'
p4287
(lp4288
g25
asS'manubgfactured  goods'
p4289
(lp4290
g25
asS'files\ndescribing'
p4291
(lp4292
g14
asS'parts'
p4293
(lp4294
g41
asS'categories   number'
p4295
(lp4296
g14
asS'important economic  =\nactivity'
p4297
(lp4298
g25
asS'industry represents 18%'
p4299
(lp4300
g38
asS'small amounts'
p4301
(lp4302
g25
asS'identification number'
p4303
(lp4304
g14
asS'europe[edit]\neurope'
p4305
(lp4306
g30
asS'ventilation requirements'
p4307
(lp4308
g38
asS'principal  =\nturnips'
p4309
(lp4310
g25
asS'alter'
p4311
(lp4312
g7
ag8
asS'data mining algorithms occur'
p4313
(lp4314
g30
asS'recipient relating'
p4315
(lp4316
g7
ag8
asS'widow douglas put huck\xc2\x92'
p4317
(lp4318
g11
asS'finance minister kjell-olof feldt'
p4319
(lp4320
g4
asS'pleasant climate =\nfosters tourism'
p4321
(lp4322
g25
asS'symmetrical general effect'
p4323
(lp4324
g11
asS'including documentation carefully spelling'
p4325
(lp4326
g14
asS'framework'
p4327
(lp4328
g7
asS'party'
p4329
(lp4330
g7
ag8
ag41
asS'miscellaneous =\nmanubgfactured articles'
p4331
(lp4332
g25
asS'linking'
p4333
(lp4334
g41
asS'@end[itemize]\n\niran\n@begin[itemize]\n   revolutionary leader ayatollah ruhollah khomeini'
p4335
(lp4336
g4
asS'association'
p4337
(lp4338
g30
asS'project gutenberg-tm concept'
p4339
(lp4340
g11
asS'central america'
p4341
(lp4342
g25
asS'content-based indexing'
p4343
(lp4344
g14
asS'performance obtained'
p4345
(lp4346
g14
asS'corn \xc2\x93pone\xc2\x94 stock'
p4347
(lp4348
g11
asS'hayes testset'
p4349
(lp4350
g14
asS'dmoz\ndata mining tool vendors'
p4351
(lp4352
g30
asS'sixth file'
p4353
(lp4354
g14
asS'jealous--black revenge\n\nchapter xix'
p4355
(lp4356
g11
asS'technical report 91--93'
p4357
(lp4358
g14
asS'text\ncategorization'
p4359
(lp4360
g14
asS'party modifications'
p4361
(lp4362
g41
asS'claims brought'
p4363
(lp4364
g7
ag8
asS'software exchange'
p4365
(lp4366
g7
ag8
ag41
asS'web data mining'
p4367
(lp4368
g30
asS'chemical structure miner'
p4369
(lp4370
g30
asS'energy'
p4371
(lp4372
g38
asS'hard'
p4373
(lp4374
g38
asS'legal theory'
p4375
(lp4376
g41
asS'mine owned'
p4377
(lp4378
g38
asS'worm-eaten boards staggered'
p4379
(lp4380
g11
asS'invariably heard distressing\nnews--'
p4381
(lp4382
g11
asS'family educational rights'
p4383
(lp4384
g30
asS'saudi arabian riyal'
p4385
(lp4386
g4
asS'clustering \xe2\x80\x93'
p4387
(lp4388
g30
asS'researchers attempted'
p4389
(lp4390
g14
asS'domestic security'
p4391
(lp4392
g30
asS'mining weekly online'
p4393
(lp4394
g38
asS'publish'
p4395
(lp4396
g7
ag8
ag41
asS'research'
p4397
(lp4398
g14
asS'diamond deposits'
p4399
(lp4400
g25
asS'acting'
p4401
(lp4402
g7
ag8
asS'reuters-21578 collection resides'
p4403
(lp4404
g14
asS'stony-hearted liar reel'
p4405
(lp4406
g11
asS'foundation web page'
p4407
(lp4408
g11
asS'reasonable period'
p4409
(lp4410
g7
ag8
asS'distribute software'
p4411
(lp4412
g41
asS'mineworkers'
p4413
(lp4414
g38
asS'sought ben rogers'
p4415
(lp4416
g11
asS'sequential pattern mining'
p4417
(lp4418
g30
asS'economic subject categories'
p4419
(lp4420
g14
asS'sgml language'
p4421
(lp4422
g14
asS'peninsula energy started plans'
p4423
(lp4424
g38
asS'@*\ninternational wrought copper council'
p4425
(lp4426
g4
asS'wide natural resource base =\nincluding major deposits'
p4427
(lp4428
g25
asS'writing categorization rules'
p4429
(lp4430
g14
asS'qualify'
p4431
(lp4432
g7
ag8
asS'data include bayes'
p4433
(lp4434
g30
asS'announcement including'
p4435
(lp4436
g41
asS'21450/723 split'
p4437
(lp4438
g14
asS'modified lewis'
p4439
(lp4440
g14
asS'definition'
p4441
(lp4442
g41
asS'extend'
p4443
(lp4444
g41
asS'article starts'
p4445
(lp4446
g14
asS'month = apr'
p4447
(lp4448
g14
asS'machine-readable source code'
p4449
(lp4450
g41
asS'za/occasional-papers/26-uranium-mining-in-africa-a-continent-at-the-centre-of-a-global-nuclear-renaissance/file\njump'
p4451
(lp4452
g38
asS'kimberley pipes'
p4453
(lp4454
g38
asS'industrial products'
p4455
(lp4456
g25
asS'neighboring spectators\nshook'
p4457
(lp4458
g11
asS'subsistence crops'
p4459
(lp4460
g25
asS'slave named bull'
p4461
(lp4462
g11
asS'predictive analytics'
p4463
(lp4464
g30
asS'assign'
p4465
(lp4466
g7
ag8
asS'clause'
p4467
(lp4468
g41
asS'}\n\n@inproceedings{hayes89'
p4469
(lp4470
g14
asS'target set'
p4471
(lp4472
g30
asS'kluwer called data mining'
p4473
(lp4474
g30
asS'high quality set'
p4475
(lp4476
g14
asS'mandate full safety audits'
p4477
(lp4478
g38
asS'hong kong dollar'
p4479
(lp4480
g4
asS'konstanz information miner'
p4481
(lp4482
g30
asS'oracle designates'
p4483
(lp4484
g41
asS'organizations listed'
p4485
(lp4486
g14
asS'email message david'
p4487
(lp4488
g4
asS'big door sheathed'
p4489
(lp4490
g11
asS'kentia palm =\nseed'
p4491
(lp4492
g25
asS'auto assembly'
p4493
(lp4494
g25
asS'sgml tags'
p4495
(lp4496
g14
asS'european copyright'
p4497
(lp4498
g30
asS'gpl'
p4499
(lp4500
g41
asS'differ'
p4501
(lp4502
g7
ag8
asS'data mining free speech'
p4503
(lp4504
g30
asS'steel =\nmill products'
p4505
(lp4506
g25
asS'project gutenberg-tm ebooks'
p4507
(lp4508
g11
asS'rights conveyed'
p4509
(lp4510
g41
asS'@*\nunited nations conference'
p4511
(lp4512
g4
asS'patent infringement claim'
p4513
(lp4514
g41
asS'lib/junit'
p4515
(lp4516
g7
asS'farm langlaagte'
p4517
(lp4518
g38
asS'data mining software provided'
p4519
(lp4520
g30
asS'\xc2\x92 tar de head'
p4521
(lp4522
g11
asS'cecil rhodes'
p4523
(lp4524
g38
asS'machine learning software applications written'
p4525
(lp4526
g30
asS'section viii'
p4527
(lp4528
g14
asS'central bank president miguel mancera aguayo'
p4529
(lp4530
g4
asS'<people>'
p4531
(lp4532
g14
asS'\xc2\x94\n\nbecky grew apprehensive'
p4533
(lp4534
g11
asS'actual united states\nsenator'
p4535
(lp4536
g11
asS'option'
p4537
(lp4538
g41
asS'contents  [hide] \n1'
p4539
(lp4540
g30
asS'2007 strike\n1'
p4541
(lp4542
g38
asS'phosphate rock mining'
p4543
(lp4544
g25
asS'library give'
p4545
(lp4546
g41
asS'newly created lobster'
p4547
(lp4548
g25
asS'free software foundation software'
p4549
(lp4550
g41
asS'largest coal exporter'
p4551
(lp4552
g38
asS'samuel langhorne clemens'
p4553
(lp4554
g11
asS'biggest iron ore supplier'
p4555
(lp4556
g38
asS'excludes =\nmilitary  equipment'
p4557
(lp4558
g25
asS'combining covered software'
p4559
(lp4560
g41
asS'patent issues'
p4561
(lp4562
g41
asS'@*\nunited nations'
p4563
(lp4564
g4
asS'@end[itemize]\n\nnicaragua\n@begin[itemize]\ndaniel ortega'
p4565
(lp4566
g4
asS'flaky ashes broadcast'
p4567
(lp4568
g11
asS'karoo'
p4569
(lp4570
g38
asS'kind'
p4571
(lp4572
g7
ag8
asS'subsequent discovery'
p4573
(lp4574
g38
asS'distribution license'
p4575
(lp4576
g41
asS'strange sadness rested'
p4577
(lp4578
g11
asS'machine tools'
p4579
(lp4580
g25
asS'derivative work'
p4581
(lp4582
g41
asS'dtd'
p4583
(lp4584
S'sample\\lewis.dtd'
p4585
aS'C:\\bharat\\Work\\OneDrive - NCSU\\github\\tag_based_file_manager\\sample\\lewis.dtd'
p4586
asS'selling whitewashing privileges'
p4587
(lp4588
g11
asS'license applies'
p4589
(lp4590
g41
asS'risks'
p4591
(lp4592
g7
ag8
asS'@end[itemize]\n\nhungary\n@begin[itemize]\n   head'
p4593
(lp4594
g4
asS'mines annual'
p4595
(lp4596
g38
asS'identify documents'
p4597
(lp4598
g14
asS'interactive'
p4599
(lp4600
g41
asS'web search'
p4601
(lp4602
g30
asS'derivative'
p4603
(lp4604
g41
asS'legal entities'
p4605
(lp4606
g41
asS'options exchange'
p4607
(lp4608
g4
asS'data miners'
p4609
(lp4610
g30
asS'related task'
p4611
(lp4612
g14
asS'main page\ncontents\nfeatured content\ncurrent events\nrandom article\ndonate'
p4613
(lp4614
g30
ag38
asS'private entrance\n\nchapter ii'
p4615
(lp4616
g11
asS'short time'
p4617
(lp4618
g30
asS'mitterrand'
p4619
(lp4620
g4
asS'subsequent rapid development'
p4621
(lp4622
g38
asS'final mighty hurrah'
p4623
(lp4624
g11
asS'richest economy'
p4625
(lp4626
g38
asS'federal treasurer paul keating'
p4627
(lp4628
g4
asS'business partners'
p4629
(lp4630
g7
ag8
asS'license terms'
p4631
(lp4632
g41
asS'separate till death relieved'
p4633
(lp4634
g11
asS'sell'
p4635
(lp4636
g7
ag8
asS'retrieved 2007-11-28'
p4637
(lp4638
g38
asS'sigmod conference'
p4639
(lp4640
g30
asS'describing stately circles--'
p4641
(lp4642
g11
asS'action arose'
p4643
(lp4644
g7
ag8
asS'software package'
p4645
(lp4646
g30
asS'}\n\n@book{weiss91'
p4647
(lp4648
g14
asS'1991 free software foundation'
p4649
(lp4650
g41
asS'modified apte'
p4651
(lp4652
g14
asS'economic planning agency tetsuo kondo'
p4653
(lp4654
g4
asS'data mining 2008'
p4655
(lp4656
g30
asS'knowledge extraction'
p4657
(lp4658
g30
asS'semifinished =\nmanubgfactured goods'
p4659
(lp4660
g25
asS'legal action'
p4661
(lp4662
g7
ag8
asS'@*\naustralian stock exchange'
p4663
(lp4664
g4
asS'135 valid topics\ncategories'
p4665
(lp4666
g14
asS'paying copyright royalties'
p4667
(lp4668
g11
asS'actual lists'
p4669
(lp4670
g4
asS'added'
p4671
(lp4672
g7
ag8
asS'soares'
p4673
(lp4674
g4
asS'agreement terminate'
p4675
(lp4676
g7
ag8
asS'project gutenberg-tm'
p4677
(lp4678
g11
asS'light manubgfacturing'
p4679
(lp4680
g25
asS'toothache grew\nirksome'
p4681
(lp4682
g11
asS'mining africa'
p4683
(lp4684
g38
asS'subs=\nistence potatoes'
p4685
(lp4686
g25
asS'natural  gas'
p4687
(lp4688
g25
asS'term data mining'
p4689
(lp4690
g30
asS'commercial =\ncrops'
p4691
(lp4692
g25
asS'@*\nagency'
p4693
(lp4694
g4
asS'industrial equipment'
p4695
(lp4696
g25
asS'<text>\ntag'
p4697
(lp4698
g14
asS'catch =\nreaching'
p4699
(lp4700
g25
asS'software patents'
p4701
(lp4702
g41
asS'agriculture minister francois guillaume'
p4703
(lp4704
g4
asS'include wheat'
p4705
(lp4706
g25
asS'ben rogers\xc2\x92 hayloft'
p4707
(lp4708
g11
asS'excluding combinations'
p4709
(lp4710
g7
ag8
asS'major crops'
p4711
(lp4712
g25
asS'financial =\nservices'
p4713
(lp4714
g25
asS'cross-claim'
p4715
(lp4716
g7
ag8
asS'solemn oath--terror brings repentance--mental punishment\n\nchapter xi'
p4717
(lp4718
g11
asS'gold mining industry continued'
p4719
(lp4720
g38
asS'expressly provided'
p4721
(lp4722
g41
asS'category names'
p4723
(lp4724
g4
ag14
asS'@*\nparis stock exchange/bourse'
p4725
(lp4726
g4
asS'enforceability'
p4727
(lp4728
g7
ag8
asS'petroleum resources'
p4729
(lp4730
g4
asS'head made tom shudder--'
p4731
(lp4732
g11
asS'small fish catch'
p4733
(lp4734
g25
asS'litter furder west--so--'
p4735
(lp4736
g11
asS'low-grade iron ore'
p4737
(lp4738
g25
asS'rare =\nearth metals'
p4739
(lp4740
g25
asS'obligations'
p4741
(lp4742
g7
ag8
ag41
asS'industrial production index'
p4743
(lp4744
g4
asS'modifications made'
p4745
(lp4746
g41
asS'phil hayes'
p4747
(lp4748
g4
ag14
asS'@end[itemize]\n\nnorway\n@begin[itemize]\n   prime minister mrs gro harlem brundtland'
p4749
(lp4750
g4
asS'uranium mining projects'
p4751
(lp4752
g38
asS'gold rushes'
p4753
(lp4754
g38
asS'authorized hereunder'
p4755
(lp4756
g41
asS'ha\xc2\x92nted houses'
p4757
(lp4758
g11
asS'rendered inaccurate'
p4759
(lp4760
g41
asS'heightened political tensions'
p4761
(lp4762
g38
asS'reuters-22173 test\ncollection'
p4763
(lp4764
g14
asS'copyright'
p4765
(lp4766
g41
asS'decision support system'
p4767
(lp4768
g30
asS'distributed'
p4769
(lp4770
g7
ag8
ag41
ag14
asS'related settlement negotiations'
p4771
(lp4772
g7
ag8
asS'virgin islands'
p4773
(lp4774
g25
asS'@*\ninternational wheat council'
p4775
(lp4776
g4
asS'illicit drug industry reportedly =\nproduces'
p4777
(lp4778
g25
asS'8'
(lp4779
g7
asS'saved\n\nchapter xxxii'
p4780
(lp4781
g11
asS'distributes'
p4782
(lp4783
g7
ag8
asS'grandmothers\xc2\x92 ancient trinkets'
p4784
(lp4785
g11
asS'drooping tail lifted'
p4786
(lp4787
g11
asS'recent-research\n2011 wiley interdisciplinary reviews'
p4788
(lp4789
g30
asS'toy tin trumpet'
p4790
(lp4791
g11
asS'tom compare notes\n--'
p4792
(lp4793
g11
asS'full compliance'
p4794
(lp4795
g41
asS'lethal disease'
p4796
(lp4797
g38
asS'patent licensable'
p4798
(lp4799
g41
asS'@end[itemize]'
p4800
(lp4801
g4
asS'news stories'
p4802
(lp4803
g14
asS'express'
p4804
(lp4805
g7
ag8
asS'brundtland'
p4806
(lp4807
g4
asS'western =\nsahara'
p4808
(lp4809
g25
asS'peter shoemaker'
p4810
(lp4811
g14
asS'europa island'
p4812
(lp4813
g25
asS'\xc2\x94\n\njoe grumbled awhile'
p4814
(lp4815
g11
asS'2003 mineral study'
p4816
(lp4817
g38
asS'production machinery including =\nmachine tools'
p4818
(lp4819
g25
asS'combinations'
p4820
(lp4821
g7
ag8
asS'program constitutes recipient'
p4822
(lp4823
g7
ag8
asS'natural =\ngas'
p4824
(lp4825
g25
asS'readers interested'
p4826
(lp4827
g14
asS'phosphat=\nes'
p4828
(lp4829
g25
asS'retrieved 14 november 2014\njump'
p4830
(lp4831
g30
asS'solemn hush fell'
p4832
(lp4833
g11
asS'include data archaeology'
p4834
(lp4835
g30
asS'european commission facilitated stakeholder discussion'
p4836
(lp4837
g30
asS'publish results based'
p4838
(lp4839
g14
asS'witwatersrand'
p4840
(lp4841
g38
asS'remove'
p4842
(lp4843
g7
ag8
asS'pdf\njump'
p4844
(lp4845
g38
asS'garcia'
p4846
(lp4847
g4
asS'gold mining[21]'
p4848
(lp4849
g38
asS'original creation'
p4850
(lp4851
g41
asS'foreign economic relations'
p4852
(lp4853
g4
asS'natural =\nresources'
p4854
(lp4855
g25
asS'copyrighted interfaces'
p4856
(lp4857
g41
asS'patent license'
p4858
(lp4859
g7
ag8
ag41
asS'=\nsemifinished products'
p4860
(lp4861
g25
asS'necessarily infringed'
p4862
(lp4863
g7
ag8
asS'split assigns documents'
p4864
(lp4865
g14
asS'gerhardus oosthuizen'
p4866
(lp4867
g38
asS'intelligence'
p4868
(lp4869
g30
asS'^ economics dept'
p4870
(lp4871
g38
asS'prime minister zbigniew messner'
p4872
(lp4873
g4
asS'defense'
p4874
(lp4875
g7
ag8
asS'principal crops'
p4876
(lp4877
g25
asS'topics category'
p4878
(lp4879
g14
asS'performance claims'
p4880
(lp4881
g7
ag8
asS'</'
p4882
(lp4883
g14
asS'oppressed millions groaning'
p4884
(lp4885
g11
asS'data processing =\nequipment'
p4886
(lp4887
g25
asS'happy scriptural flourish'
p4888
(lp4889
g11
asS'code released'
p4890
(lp4891
g41
asS'electric welding equipment'
p4892
(lp4893
g25
asS'machine learning research'
p4894
(lp4895
g30
asS'highly subsidized'
p4896
(lp4897
g25
asS'general wojciech jaruzelski'
p4898
(lp4899
g4
asS'@end[itemize]\n\nitaly\n@begin[itemize]\n   president francesco cossiga'
p4900
(lp4901
g4
asS'conditions'
p4902
(lp4903
g7
ag8
ag38
asS'commercial fisheries provide annual =\ncatch'
p4904
(lp4905
g25
asS'web site includes information'
p4906
(lp4907
g11
asS'platinum mining'
p4908
(lp4909
g38
asS'prime minister king fahd'
p4910
(lp4911
g4
asS'control characters'
p4912
(lp4913
g14
asS'canned coconut =\ncream'
p4914
(lp4915
g25
asS'intake air'
p4916
(lp4917
g38
asS'predict categories'
p4918
(lp4919
g14
asS'watch assembly'
p4920
(lp4921
g25
asS'central bank governor majid qassemi'
p4922
(lp4923
g4
asS'american statistician'
p4924
(lp4925
g30
asS'arctic ocean'
p4926
(lp4927
g25
asS'arizona state university'
p4928
(lp4929
g30
asS'documentation distributed'
p4930
(lp4931
g7
ag8
asS'root =\ncrops'
p4932
(lp4933
g25
asS'visualisation-oriented data mining software'
p4934
(lp4935
g30
asS'large diamond mines'
p4936
(lp4937
g38
asS'cattle  raising =\nwidespread'
p4938
(lp4939
g25
asS'ben rogers hove'
p4940
(lp4941
g11
asS'barely perceptible start'
p4942
(lp4943
g11
asS'miss peters\xc2\x92 class'
p4944
(lp4945
g11
asS'delimit'
p4946
(lp4947
g14
asS'license'
p4948
(lp4949
g7
ag8
ag41
asS'figure includes'
p4950
(lp4951
g38
asS'data mining steps'
p4952
(lp4953
g30
asS'economy minister ali wardhana'
p4954
(lp4955
g4
asS'agriculture minister general harn leenanon'
p4956
(lp4957
g4
asS'connection'
p4958
(lp4959
g7
ag8
asS'stop foolin\xc2\x92 roun\xc2\x92 wid'
p4960
(lp4961
g11
asS'patents'
p4962
(lp4963
g41
asS'data anonymity'
p4964
(lp4965
g30
asS'subject matter hereof'
p4966
(lp4967
g41
asS'pdf'
p4968
(lp4969
g38
asS'binary form'
p4970
(lp4971
g41
asS'brazilian coffee institute'
p4972
(lp4973
g4
asS'contributor represents'
p4974
(lp4975
g7
ag8
asS'czech republic'
p4976
(lp4977
g25
asS'supply'
p4978
(lp4979
g38
asS'customer analytics\neducational data mining\nnational security agency\npolice-enforced anpr'
p4980
(lp4981
g30
asS'22 data files'
p4982
(lp4983
g14
asS'complies'
p4984
(lp4985
g7
ag8
asS'reaching project gutenberg-tm\xc2\x92'
p4986
(lp4987
g11
asS'secret\n\nchapter xviii'
p4988
(lp4989
g11
asS'doc'
p4990
(lp4991
S'sample\\dir2\\asr.doc'
p4992
aS'C:\\bharat\\Work\\OneDrive - NCSU\\github\\tag_based_file_manager\\sample\\dir2\\asr.doc'
p4993
asS'true depends'
p4994
(lp4995
g41
asS'scientific computing framework'
p4996
(lp4997
g30
asS'canadian dollar'
p4998
(lp4999
g4
asS'flickering reflections flung'
p5000
(lp5001
g11
asS'biannual academic journal titled'
p5002
(lp5003
g30
asS'two--huck mounts guard\n\nchapter xxix'
p5004
(lp5005
g11
asS'@end[itemize]\n\nczechoslovakia\n@begin[itemize]\n   president gustav husak'
p5006
(lp5007
g4
asS'platinum'
p5008
(lp5009
g38
asS'licensed hereunder'
p5010
(lp5011
g7
ag8
asS'uncovering hidden patterns[12]'
p5012
(lp5013
g30
asS'transvaal province'
p5014
(lp5015
g38
asS'^ limited power'
p5016
(lp5017
g38
asS'acceptance'
p5018
(lp5019
g7
ag8
asS'000 short tons'
p5020
(lp5021
g38
asS'light =\nassembly operations'
p5022
(lp5023
g25
asS'2013\njump'
p5024
(lp5025
g38
asS'gold production'
p5026
(lp5027
g38
asS'excluding declaratory judgment actions'
p5028
(lp5029
g41
asS'huge'
p5030
(lp5031
g38
asS'top level document-internal tags'
p5032
(lp5033
g14
asS'placer deposits'
p5034
(lp5035
g25
asS'artificial intelligence applications'
p5036
(lp5037
g14
asS'customer data-mining applications'
p5038
(lp5039
g30
asS'overtook india'
p5040
(lp5041
g38
asS'low rainfall limit =\nagricultural activity'
p5042
(lp5043
g25
asS'surrounding gold-rich greenstone belts'
p5044
(lp5045
g38
asS'western sahara'
p5046
(lp5047
g25
asS'@*\ninternational energy agency'
p5048
(lp5049
g4
asS'feature set formation produced tuples based'
p5050
(lp5051
g14
asS'mining companies'
p5052
(lp5053
g38
asS'ten yellow tickets'
p5054
(lp5055
g11
asS'kosovo produces =\nfruits'
p5056
(lp5057
g25
asS'mine'
p5058
(lp5059
g38
asS'africa mine strike'
p5060
(lp5061
g38
asS'non-profit organization'
p5062
(lp5063
g38
asS'research[edit]'
p5064
(lp5065
g30
asS'venkataraman'
p5066
(lp5067
g4
asS'accustomed school murmur\nrose'
p5068
(lp5069
g11
asS'slim oatmeal diet'
p5070
(lp5071
g11
asS'miscellaneous manubgfactured goods'
p5072
(lp5073
g25
asS'principal paddy =\nrice'
p5074
(lp5075
g25
asS'decision trees'
p5076
(lp5077
g30
asS'creating derivative works based'
p5078
(lp5079
g11
asS'low geothermal gradient'
p5080
(lp5081
g38
asS'internal corrosion'
p5082
(lp5083
g38
asS'training document'
p5084
(lp5085
g14
asS'mineral riches'
p5086
(lp5087
g38
asS'governor'
p5088
(lp5089
g4
asS'small scale'
p5090
(lp5091
g25
asS'booming thunderblasts drowned'
p5092
(lp5093
g11
asS'grizzlies[clarification needed]'
p5094
(lp5095
g38
asS'information retrieval laboratory'
p5096
(lp5097
g14
asS'behavior'
p5098
(lp5099
g30
asS'finance minister ray macsharry'
p5100
(lp5101
g4
asS'finance minister chu okongwu'
p5102
(lp5103
g4
asS'compare results'
p5104
(lp5105
g14
asS'kdd process'
p5106
(lp5107
g30
asS'=\nfood crops include =\ncoffee'
p5108
(lp5109
g25
asS'leading =\neuropean producer'
p5110
(lp5111
g25
asS'distributing project gutenberg-tm electronic works provided'
p5112
(lp5113
g11
asS'line note'
p5114
(lp5115
g14
asS'@end[itemize]\n\nindia\n@begin[itemize]\n   president ramaswamy venkataraman'
p5116
(lp5117
g4
asS'woods\n\ntom meditates\n\nrobin hood'
p5118
(lp5119
g11
asS'legal actions brought'
p5120
(lp5121
g7
ag8
asS'ssrn 546782freely accessible'
p5122
(lp5123
g30
asS'toys\n\namusement\n\nbecky thatcher\n\npaying'
p5124
(lp5125
g11
asS'truth\n\nchapter xx'
p5126
(lp5127
g11
asS'industry minister manuel romero caro'
p5128
(lp5129
g4
asS'prime minister turgut ozal'
p5130
(lp5131
g4
asS'rarely facetious thing'
p5132
(lp5133
g11
asS'sunflower =\nseed'
p5134
(lp5135
g25
asS'economic affairs'
p5136
(lp5137
g4
asS'documentation included'
p5138
(lp5139
g41
asS'disciples were--\xc2\x94\n\n\xc2\x93_david'
p5140
(lp5141
g11
asS'date initial developer'
p5142
(lp5143
g41
asS'hojatoleslam ali hashemi rafsanjani'
p5144
(lp5145
g4
asS'@*\ninternational wool secretariat'
p5146
(lp5147
g4
asS'italy'
p5148
(lp5149
g4
asS'grant'
p5150
(lp5151
g7
ag8
ag41
asS'recipient automatically receives'
p5152
(lp5153
g41
asS'low voice--injun joe\xc2\x92'
p5154
(lp5155
g11
asS'world output'
p5156
(lp5157
g38
asS'commercial =\njute'
p5158
(lp5159
g25
asS'scaling algorithms'
p5160
(lp5161
g30
asS'@*\ninternational labour organisation'
p5162
(lp5163
g4
asS'white sandy beaches'
p5164
(lp5165
g25
asS'newswire articles'
p5166
(lp5167
g14
asS'modification'
p5168
(lp5169
g41
asS'party waives'
p5170
(lp5171
g7
ag8
asS'bypass documents'
p5172
(lp5173
g14
asS'world bank president barber conable'
p5174
(lp5175
g4
asS'northern mariana =\nislands'
p5176
(lp5177
g25
asS'contexts raise questions'
p5178
(lp5179
g30
asS'european research libraries'
p5180
(lp5181
g30
asS'losses sustained'
p5182
(lp5183
g41
asS'@*\ninternational sugar agreement'
p5184
(lp5185
g4
asS'devils--cautious approaches--happy hours\n\nchapter vii'
p5186
(lp5187
g11
asS'@*\njohannesburg stock exchange'
p5188
(lp5189
g4
asS'purpose'
p5190
(lp5191
g7
ag8
asS'rolled steel =\nproducts'
p5192
(lp5193
g25
asS'governor robin leigh-pemberton'
p5194
(lp5195
g4
asS'country\nnavigation menu'
p5196
(lp5197
g38
asS'precise terms'
p5198
(lp5199
g41
asS'135 topics categories'
p5200
(lp5201
g4
ag14
asS'project gutenberg'
p5202
(lp5203
g11
asS'central bank governor bengt dennis'
p5204
(lp5205
g4
asS'united states central intelligence agency'
p5206
(lp5207
g38
asS'information systems'
p5208
(lp5209
g14
asS'pattern recognition'
p5210
(lp5211
g30
asS'working conditions\n1'
p5212
(lp5213
g38
asS'international development'
p5214
(lp5215
g4
asS'finance minister kiichi miyazawa'
p5216
(lp5217
g4
asS'makes'
p5218
(lp5219
g41
asS'alleging'
p5220
(lp5221
g7
ag8
ag41
asS'text\ncategorization researchers discussed'
p5222
(lp5223
g14
asS'analysis'
p5224
(lp5225
g30
asS'person'
p5226
(lp5227
g7
ag8
asS'york federal reserve bank'
p5228
(lp5229
g4
asS'small  deposits'
p5230
(lp5231
g25
asS'boer war'
p5232
(lp5233
g38
asS'civilian population'
p5234
(lp5235
g38
asS'considered independent'
p5236
(lp5237
g41
asS'responsible'
p5238
(lp5239
g41
asS'modified version'
p5240
(lp5241
g41
asS'large data bases\nstandards[edit]'
p5242
(lp5243
g30
asS'patent claims licensable'
p5244
(lp5245
g7
ag8
asS'chronological burstiness'
p5246
(lp5247
g14
asS'adventure grew sensibly sharper'
p5248
(lp5249
g11
asS'world'
p5250
(lp5251
g30
asS'@*\n@end[format]\n@blankspace[3 lines]\n________________________________________________________________\n@heading[country codes'
p5252
(lp5253
g4
asS'survive termination'
p5254
(lp5255
g41
asS'dull woody accent'
p5256
(lp5257
g11
asS'aerial view'
p5258
(lp5259
g38
asS'reports include'
p5260
(lp5261
g30
asS'outlier detection methods written'
p5262
(lp5263
g30
asS'including legal fees'
p5264
(lp5265
g11
asS'metal-cutting machine =\ntools'
p5266
(lp5267
g25
asS'free\ndistribution'
p5268
(lp5269
g14
asS'stephen harding'
p5270
(lp5271
g14
asS'@*\ngrupo de paises latinoamericanos'
p5272
(lp5273
g4
asS'stainless steel'
p5274
(lp5275
g38
asS'heavy industrial products include raw =\nsteel'
p5276
(lp5277
g25
asS'exercising'
p5278
(lp5279
g7
ag8
asS'separate modules'
p5280
(lp5281
g7
ag8
asS'manubgfactured =\nproducts'
p5282
(lp5283
g25
asS'durable  consumer =\ngoods'
p5284
(lp5285
g25
asS'significant number'
p5286
(lp5287
g14
asS'transformation'
p5288
(lp5289
g30
asS'places categories correspond'
p5290
(lp5291
g14
asS'machine =\ntools'
p5292
(lp5293
g25
asS'information retrieval test collections'
p5294
(lp5295
g14
asS'bulky bundle of--\n\n\xc2\x93'
p5296
(lp5297
g11
asS'text categorization test collection'
p5298
(lp5299
g14
asS'country rock'
p5300
(lp5301
g38
asS'making results hard'
p5302
(lp5303
g14
asS'concrete block'
p5304
(lp5305
g25
asS'budget office james miller'
p5306
(lp5307
g4
asS'reuters tag'
p5308
(lp5309
g14
asS'finance minister luiz carlos bresser pereira'
p5310
(lp5311
g4
asS'schlueter'
p5312
(lp5313
g4
asS'text retrieval test collections'
p5314
(lp5315
g14
asS'basic theme'
p5316
(lp5317
g14
asS'topics\napply'
p5318
(lp5319
g14
asS'single gzipped unix tar archive'
p5320
(lp5321
g14
asS'economy minister knud enggaard'
p5322
(lp5323
g4
asS'modifications'
p5324
(lp5325
g41
asS'cia world factbook'
p5326
(lp5327
g38
asS'international air transport association director general\n    guenter eser'
p5328
(lp5329
g4
asS'}\n\n@inproceedings{lewis94b'
p5330
(lp5331
g14
asS'sgml-tagged version'
p5332
(lp5333
g14
asS'incidental'
p5334
(lp5335
g7
ag8
asS'creamer media'
p5336
(lp5337
g38
asS'annotation led'
p5338
(lp5339
g14
asS'deep seabed minerals'
p5340
(lp5341
g25
asS'continue'
p5342
(lp5343
g7
ag8
asS'south africa\ndiamond'
p5344
(lp5345
g38
asS'data mining process'
p5346
(lp5347
g30
asS'art thou that--that--\xc2\x94\n\n\xc2\x93dares'
p5348
(lp5349
g11
asS'methods'
p5350
(lp5351
g30
ag14
asS'software packages'
p5352
(lp5353
g30
asS'absolutely'
p5354
(lp5355
g41
asS'uk government'
p5356
(lp5357
g30
asS'cross platform tool'
p5358
(lp5359
g30
asS'creation'
p5360
(lp5361
g41
asS'food minister alvaro barreto'
p5362
(lp5363
g4
asS'light =\nindustry'
p5364
(lp5365
g25
asS'alley\ndoor closed softly'
p5366
(lp5367
g11
asS'finance minister jon baldvin hannibalsson'
p5368
(lp5369
g4
asS'iadis european conference'
p5370
(lp5371
g30
asS'asian development bank president masao fujioka'
p5372
(lp5373
g4
asS'nicaragua'
p5374
(lp5375
g4
asS'held invalid'
p5376
(lp5377
g41
asS'@*\ninternational rubber study group'
p5378
(lp5379
g4
asS'control compilation'
p5380
(lp5381
g41
asS'turn provided'
p5382
(lp5383
g30
asS'electronic works'
p5384
(lp5385
g11
asS'craggy heights echoed'
p5386
(lp5387
g11
asS'@end[itemize]\n\nspain\n@begin[itemize]\n   prime minister felipe gonzalez'
p5388
(lp5389
g4
asS'2014 show'
p5390
(lp5391
g30
asS'political\ngovernment compared'
p5392
(lp5393
g11
asS'june 1995'
p5394
(lp5395
g41
asS'source files distributed'
p5396
(lp5397
g41
asS'data mining standard named'
p5398
(lp5399
g30
asS'annual international conference'
p5400
(lp5401
g30
asS'mining practices'
p5402
(lp5403
g30
asS'automobile =\nassembly'
p5404
(lp5405
g25
asS'test data'
p5406
(lp5407
g14
asS'@*\ngulf cooperation council'
p5408
(lp5409
g4
asS'knowledge discovery software tools'
p5410
(lp5411
g30
asS'derivative works'
p5412
(lp5413
g7
ag8
ag41
asS'courts located'
p5414
(lp5415
g41
asS'processing'
p5416
(lp5417
g14
asS'making modifications'
p5418
(lp5419
g41
asS'agreement'
p5420
(lp5421
g7
ag8
ag41
asS'good place'
p5422
(lp5423
g14
asS'licences revoked'
p5424
(lp5425
g38
asS'hydroelectr=\nic potential'
p5426
(lp5427
g25
asS'hydropo=\nwer potential'
p5428
(lp5429
g25
asS'south african gold mines'
p5430
(lp5431
g38
asS'bushy white\nwhiskers'
p5432
(lp5433
g11
asS'important food industry'
p5434
(lp5435
g25
asS'content related categories'
p5436
(lp5437
g14
asS'depths'
p5438
(lp5439
g38
asS'reuters newswire'
p5440
(lp5441
g14
asS'135 valid topics categories'
p5442
(lp5443
g14
asS'assign topics categories'
p5444
(lp5445
g14
asS'brown spotted lady-bug climbed'
p5446
(lp5447
g11
asS'publish revised'
p5448
(lp5449
g41
asS'1 library'
p5450
(lp5451
g7
asS'integrated software application'
p5452
(lp5453
g30
asS'corpus\npreparation process'
p5454
(lp5455
g14
asS've=\ngetable oil'
p5456
(lp5457
g25
asS'uk copyright laws'
p5458
(lp5459
g30
asS'top fishing nations'
p5460
(lp5461
g25
asS'country 2010-2015'
p5462
(lp5463
g38
asS'great splint-bottom\narm-chair'
p5464
(lp5465
g11
asS'[edit]\nmethods\nagent mining\nanomaly/outlier/change detection\nassociation rule learning\nbayesian networks\nclassification\ncluster analysis\ndecision trees\nensemble learning\nfactor analysis\ngenetic algorithms\nintention mining\nlearning classifier system\nmultilinear subspace learning\nneural networks\nregression analysis\nsequence mining\nstructured data analysis\nsupport vector machines\ntext mining\ntime series analysis\napplication domains\nanalytics\nbehavior informatics\nbig data\nbioinformatics\nbusiness intelligence\ndata analysis\ndata warehouse\ndecision support system\ndomain driven data mining\ndrug discovery\nexploratory data analysis\npredictive analytics\nweb mining\napplication examples\nmain article'
p5466
(lp5467
g30
asS'neural networks'
p5468
(lp5469
g30
asS'sections 2'
p5470
(lp5471
g7
ag8
asS'safety instructions'
p5472
(lp5473
g38
asS'typographical variant'
p5474
(lp5475
g14
asS'strong temptations--strategic movements--'
p5476
(lp5477
g11
asS'agriculture minister carlos romero'
p5478
(lp5479
g4
asS'license incorporates'
p5480
(lp5481
g41
asS'finance minister radius prawiro'
p5482
(lp5483
g4
asS'contributor'
p5484
(lp5485
g7
ag8
ag41
asS'golf fields'
p5486
(lp5487
g38
asS'south africa \xc2\xa7 mining\nsouth africa'
p5488
(lp5489
g38
asS'great dead boughs till'
p5490
(lp5491
g11
asS'court judgment'
p5492
(lp5493
g41
asS'commercial =\n crops include cotton'
p5494
(lp5495
g25
asS'invalid places'
p5496
(lp5497
g14
asS'concrete blocks'
p5498
(lp5499
g25
asS'real life applications'
p5500
(lp5501
g30
asS'@*\nasian development bank'
p5502
(lp5503
g4
asS'files'
p5504
(lp5505
g41
asS'saudi arabian monetary agency hamad saud al-sayyari'
p5506
(lp5507
g4
asS'work means'
p5508
(lp5509
g41
asS'restrictions'
p5510
(lp5511
g41
asS'consumer =\ngoods'
p5512
(lp5513
g25
asS'artist\n\ninterrupted courtship'
p5514
(lp5515
g11
asS'program prove defective'
p5516
(lp5517
g41
asS'filed'
p5518
(lp5519
g7
ag8
asS'senseless\nreply offered--'
p5520
(lp5521
g11
asS'project\ngutenberg-tm license'
p5522
(lp5523
g11
asS'laura knecht'
p5524
(lp5525
g14
asS'periodic shortages'
p5526
(lp5527
g25
asS'hand\ncorrections'
p5528
(lp5529
g14
asS'arable =\nland'
p5530
(lp5531
g25
asS'amex\nase\nasx\nbiffex\nbse\ncboe\ncbt\ncme\ncomex\ncse\nfox\nfse\nhkse\nipe\njse\nklce\nklse\nliffe\nlme\nlse\nmase\nmise\nmnse\nmose\nnasdaq\nnyce\nnycsce\nnymex\nnyse\nose\npse\nset\nsimex\nsse\nstse\ntose\ntse\nwce\nzse'
p5532
(lp5533
g269
asS'reuters-22173 collection'
p5534
(lp5535
g14
asS'*********************************************************************\n\n****subject codes'
p5536
(lp5537
g4
asS'sublicense'
p5538
(lp5539
g7
ag8
asS'food minister jenoe vancsa'
p5540
(lp5541
g4
asS'prevent silicosis'
p5542
(lp5543
g38
asS'current location'
p5544
(lp5545
g14
asS'copyright & notification'
p5546
(lp5547
g14
asS'camp wonderfully refreshed'
p5548
(lp5549
g11
asS'clear'
p5550
(lp5551
g41
asS'topics\nfield'
p5552
(lp5553
g14
asS'predictive markup language modeling'
p5554
(lp5555
g30
asS'party patent license'
p5556
(lp5557
g7
ag8
asS'[4]\nanomaly detection'
p5558
(lp5559
g30
asS'gnomovision version 69'
p5560
(lp5561
g41
asS'distinguishing version number'
p5562
(lp5563
g7
ag8
ag41
asS'consumer  goods'
p5564
(lp5565
g25
asS'fishing potential largely =\nunexploited'
p5566
(lp5567
g25
asS'isbn 3-540-37881-2\nmurphy'
p5568
(lp5569
g30
asS'cure'
p5570
(lp5571
g7
ag8
asS'annual =\nfish catch'
p5572
(lp5573
g25
asS'liability terms'
p5574
(lp5575
g41
asS'million metric  tons'
p5576
(lp5577
g25
asS'personal injury resulting'
p5578
(lp5579
g41
asS'\xc2\x94 \xc2\x93muff potter\xc2\x92ll hang'
p5580
(lp5581
g11
asS'uranium'
p5582
(lp5583
g38
asS'000 long tons'
p5584
(lp5585
g38
asS'invalid'
p5586
(lp5587
g7
ag8
asS'application'
p5588
(lp5589
g30
ag41
asS'finance minister mohammed ahmed al-razaz'
p5590
(lp5591
g4
asS'shallower'
p5592
(lp5593
g38
asS'data mining algorithms'
p5594
(lp5595
g30
asS'yoram\nsinger'
p5596
(lp5597
g14
asS'users'
p5598
(lp5599
g41
asS'\xc2\x93plain vanilla ascii\xc2\x94'
p5600
(lp5601
g11
asS'agriculture organisation'
p5602
(lp5603
g4
asS'manual extraction'
p5604
(lp5605
g30
asS'local farmers produce fresh =\nvegetables'
p5606
(lp5607
g25
asS'absurd boyish ways'
p5608
(lp5609
g11
asS'problems'
p5610
(lp5611
g41
asS'craft items'
p5612
(lp5613
g25
asS'raw  materials'
p5614
(lp5615
g25
asS'central bank governor jose fernandez'
p5616
(lp5617
g4
asS'classification results'
p5618
(lp5619
g30
asS'data aggregation'
p5620
(lp5621
g30
asS'=\nlivestock products include poultry'
p5622
(lp5623
g25
asS'food grain production'
p5624
(lp5625
g25
asS'unenforceable'
p5626
(lp5627
g7
ag8
asS'project gutenberg-tm\nelectronic works'
p5628
(lp5629
g11
asS'sector hurt'
p5630
(lp5631
g25
asS'placer  =\ndeposits'
p5632
(lp5633
g25
asS'=\nthird-largest tin producer'
p5634
(lp5635
g25
asS'rhenium-osmium isotope studies'
p5636
(lp5637
g38
asS'gross national/domestic product'
p5638
(lp5639
g4
asS'previously unexamined test\nset'
p5640
(lp5641
g14
asS'license grants'
p5642
(lp5643
g41
asS'required'
p5644
(lp5645
g7
ag8
asS'single correct\nplace'
p5646
(lp5647
g14
asS'john wiley & sons'
p5648
(lp5649
g30
asS'governor bob johnston'
p5650
(lp5651
g4
asS'implied'
p5652
(lp5653
g7
ag8
ag41
asS'manubgfactured goods'
p5654
(lp5655
g25
asS'latest words\nlingering dreamily'
p5656
(lp5657
g11
asS'[39]\nforrester research 2010 predictive analytics'
p5658
(lp5659
g30
asS'placer =\ndeposits'
p5660
(lp5661
g25
asS'date contributor'
p5662
(lp5663
g41
asS'analysis step'
p5664
(lp5665
g30
asS'=\nnorthern bosnia support orchards'
p5666
(lp5667
g25
asS'code'
p5668
(lp5669
g41
asS'soil conditions support =\nlivestock raising'
p5670
(lp5671
g25
asS'natural gas'
p5672
(lp5673
g4
ag25
asS'data mining\ndata mining topics'
p5674
(lp5675
g30
asS'privacy policy'
p5676
(lp5677
g38
asS'craft =\nitems'
p5678
(lp5679
g25
asS'text\ncategorization task'
p5680
(lp5681
g14
asS'gz'
p5682
(lp5683
S'sample\\reuters21578.tar.gz'
p5684
aS'C:\\bharat\\Work\\OneDrive - NCSU\\github\\tag_based_file_manager\\sample\\reuters21578.tar.gz'
p5685
asS'text\nelement'
p5686
(lp5687
g14
asS'assumes sole responsibility'
p5688
(lp5689
g7
ag8
asS'valid topics category'
p5690
(lp5691
g14
asS'prime minister yu kuo-hua'
p5692
(lp5693
g4
asS'plausible feature/'
p5694
(lp5695
g14
asS'projects\nwikimedia commons\nlanguages\n\xd0\xa3\xd0\xba\xd1\x80\xd0\xb0\xd1\x97\xd0\xbd\xd1\x81\xd1\x8c\xd0\xba\xd0\xb0\nedit links'
p5696
(lp5697
g38
asS'@end[itemize]\n\nireland\n@begin[itemize]\n   president patrick hillery'
p5698
(lp5699
g4
asS'contributions'
p5700
(lp5701
g7
ag8
asS'gaudy outcast condition'
p5702
(lp5703
g11
asS'pleasant climate =\nfostering tourism'
p5704
(lp5705
g25
asS'increased discussion'
p5706
(lp5707
g30
asS'authors commit'
p5708
(lp5709
g41
asS'agriculture minister laurits toernaes'
p5710
(lp5711
g4
asS'export control laws'
p5712
(lp5713
g41
asS'work based'
p5714
(lp5715
g41
asS'gold'
p5716
(lp5717
g38
asS'continual movement'
p5718
(lp5719
g38
asS'harvard business review'
p5720
(lp5721
g30
asS'[citation needed] ownership'
p5722
(lp5723
g38
asS'@*\neuropean monetary cooperation fund'
p5724
(lp5725
g4
asS'doctor robinson dies'
p5726
(lp5727
g11
asS'norwegian krone/crown'
p5728
(lp5729
g4
asS'prime minister anibal cavaco silva'
p5730
(lp5731
g4
asS'carcass\ncastor-meal\ncastor-oil\ncastorseed\ncitruspulp\ncocoa\ncoconut\ncoconut-oil\ncoffee\ncopper\ncopra-cake\ncorn\ncorn-oil\ncornglutenfeed\ncotton \ncotton-meal\ncotton-oil\ncottonseed\ncpi\ncpu\ncrude\ncruzado\ndfl\ndkr\ndlr\ndmk\ndrachma\nearn\nescudo\nf-cattle\nffr\nfishmeal\nflaxseed\nfuel\ngas\ngnp\ngold\ngrain\ngroundnut\ngroundnut-meal\ngroundnut-oil\nheat\nhk\nhog\nhousing\nincome\ninstal-debt\ninterest\ninventories\nipi\niron-steel\njet\njobs\nl-cattle\nlead\nlei\nlin-meal\nlin-oil\nlinseed\nlit\nlivestock\nlumber\nlupin\nmeal-feed\nmexpeso\nmoney-fx\nmoney-supply\nnaphtha     \nnat-gas\nnickel\nnkr\nnzdlr\noat\noilseed\norange\npalladium\npalm-meal\npalm-oil\npalmkernel\npeseta\npet-chem\nplatinum\nplywood\npork-belly\npotato\npropane\nrand\nrape-meal\nrape-oil\nrapeseed\nred-bean\nreserves\nretail\nrice\nringgit\nrubber\nrupiah\nrye\nsaudriyal\nsfr\nship\nsilk\nsilver\nsingdlr\nskr\nsorghum\nsoy-meal\nsoy-oil\nsoybean\nstg\nstrategic-metal\nsugar\nsun-meal\nsun-oil\nsunseed\ntapioca\ntea\ntin\ntrade\ntung\ntung-oil\nveg-oil\nwheat\nwool\nwpi\nyen\nzinc'
p5732
(lp5733
g276
asS'excluded'
p5734
(lp5735
g41
asS'mysterious writing\n\nriver view'
p5736
(lp5737
g11
asS'include'
p5738
(lp5739
g7
ag8
asS'produces wide range'
p5740
(lp5741
g25
asS'energy hungry'
p5742
(lp5743
g38
asS'text belongs'
p5744
(lp5745
g14
asS'highly  labor intensive'
p5746
(lp5747
g25
asS'central bank governor mariano rubio'
p5748
(lp5749
g4
asS'central bank governor tomas'
p5750
(lp5751
g4
asS'miners'
p5752
(lp5753
g38
asS'topic category'
p5754
(lp5755
g14
asS'contributor grant'
p5756
(lp5757
g41
asS'wikipedia'
p5758
(lp5759
g38
asS'sixth category field'
p5760
(lp5761
g14
asS'rank weeds smothering'
p5762
(lp5763
g11
asS'common form'
p5764
(lp5765
g41
asS'^ jump'
p5766
(lp5767
g38
asS'burning\nrecollections throng'
p5768
(lp5769
g11
asS'mined'
p5770
(lp5771
g38
asS'/~lewis'
p5772
(lp5773
g14
asS'kluwer academic publishers\nhan'
p5774
(lp5775
g30
asS'biggest'
p5776
(lp5777
g38
asS'social commission'
p5778
(lp5779
g4
asS'source code distributed'
p5780
(lp5781
g41
asS'indexing documents'
p5782
(lp5783
g14
asS'fruit =\nprovide'
p5784
(lp5785
g25
asS'finance minister bazyli samojlik'
p5786
(lp5787
g4
asS'timespan covered'
p5788
(lp5789
g14
asS'small steel-rolling =\nmills'
p5790
(lp5791
g25
asS'diamond discoveries'
p5792
(lp5793
g38
asS'add information'
p5794
(lp5795
g41
asS'disclaimer'
p5796
(lp5797
g7
ag8
asS'clay earth  pigment'
p5798
(lp5799
g25
asS'retrieved 2017-01-08'
p5800
(lp5801
g38
asS'ha\xc2\x92nted room'
p5802
(lp5803
g11
asS'lewis@research'
p5804
(lp5805
g14
asS'original software'
p5806
(lp5807
g41
asS'loving attentions aunt polly lavished'
p5808
(lp5809
g11
asS'hillery'
p5810
(lp5811
g4
asS'cambridge university press'
p5812
(lp5813
g30
asS'jump'
p5814
(lp5815
g38
asS'[citation needed]\nsituation'
p5816
(lp5817
g30
asS'data analysis'
p5818
(lp5819
g30
asS'jacob zuma'
p5820
(lp5821
g38
asS'project\ngutenberg-tm electronic work'
p5822
(lp5823
g11
asS'licenses'
p5824
(lp5825
g7
ag8
ag41
asS'small-scale =\nbeverage production'
p5826
(lp5827
g25
asS'injun joe lay stretched'
p5828
(lp5829
g11
asS'uncomfortable routine devised'
p5830
(lp5831
g11
asS'federal reserve board alan greenspan'
p5832
(lp5833
g4
asS'included files'
p5834
(lp5835
g14
asS'@*\nhong kong stock exchange'
p5836
(lp5837
g4
asS'@end[itemize]\n\ncanada\n@begin[itemize]\n   prime minister brian mulroney'
p5838
(lp5839
g4
asS'small unexploited =\ndeposits'
p5840
(lp5841
g25
asS'biggest gold mine halted'
p5842
(lp5843
g38
asS'project gutenberg-tm work'
p5844
(lp5845
g11
asS'tropical =\nwoods'
p5846
(lp5847
g25
asS'european origin'
p5848
(lp5849
g38
asS'identifiable sections'
p5850
(lp5851
g41
asS'large numbers'
p5852
(lp5853
g14
asS'south african miners'
p5854
(lp5855
g38
asS'exercise'
p5856
(lp5857
g7
ag8
asS'poorly-named attribute'
p5858
(lp5859
g14
asS'free open-source data mining software'
p5860
(lp5861
g30
asS'exchange'
p5862
(lp5863
g41
asS'modified hayes'
p5864
(lp5865
g14
asS'participant alleging'
p5866
(lp5867
g41
asS'commercial'
p5868
(lp5869
g7
ag8
asS'modified files'
p5870
(lp5871
g41
asS'grants recipient'
p5872
(lp5873
g7
ag8
asS'strict liability'
p5874
(lp5875
g7
ag8
asS'mining conditions'
p5876
(lp5877
g38
asS'results validation[edit]'
p5878
(lp5879
g30
asS'implied including'
p5880
(lp5881
g7
ag8
asS'information harvesting'
p5882
(lp5883
g30
asS'2004 siam dm conference'
p5884
(lp5885
g30
asS'\xc2\x93project gutenberg\xc2\x94'
p5886
(lp5887
g11
asS'\xd7\x99\xd7\x99\xd6\xb4\xd7\x93\xd7\x99\xd7\xa9\n\xe4\xb8\xad\xe6\x96\x87\nedit links'
p5888
(lp5889
g30
asS'receive'
p5890
(lp5891
g41
asS'portions thereof'
p5892
(lp5893
g41
asS'wrong field'
p5894
(lp5895
g14
asS'delors'
p5896
(lp5897
g4
asS'central bank president cesar ferrari'
p5898
(lp5899
g4
asS'survey'
p5900
(lp5901
g38
asS'poor dumb beast'
p5902
(lp5903
g11
asS'robert maxwell'
p5904
(lp5905
g4
asS'mine safety received considerable publicity'
p5906
(lp5907
g38
asS'@*\nsingapore international monetary exchange'
p5908
(lp5909
g4
asS'automobile assembly plant'
p5910
(lp5911
g25
asS'control'
p5912
(lp5913
g7
ag8
ag41
asS'tar-and-feather injun joe'
p5914
(lp5915
g11
asS'sudden tenderness dawned'
p5916
(lp5917
g11
asS'injun joe infested'
p5918
(lp5919
g11
asS'net importer'
p5920
(lp5921
g25
asS'large-scale data'
p5922
(lp5923
g30
asS'general public licenses'
p5924
(lp5925
g41
asS'defense advanced research projects agency'
p5926
(lp5927
g14
asS'[7]\ndue'
p5928
(lp5929
g38
asS'palm  =\nkernels'
p5930
(lp5931
g25
asS'sgm'
p5932
(lp5933
S'sample\\reut2-000.sgm'
p5934
aS'C:\\bharat\\Work\\OneDrive - NCSU\\github\\tag_based_file_manager\\sample\\reut2-000.sgm'
p5935
aS'sample\\reut2-001.sgm'
p5936
aS'C:\\bharat\\Work\\OneDrive - NCSU\\github\\tag_based_file_manager\\sample\\reut2-001.sgm'
p5937
aS'sample\\reut2-002.sgm'
p5938
aS'C:\\bharat\\Work\\OneDrive - NCSU\\github\\tag_based_file_manager\\sample\\reut2-002.sgm'
p5939
aS'sample\\reut2-003.sgm'
p5940
aS'C:\\bharat\\Work\\OneDrive - NCSU\\github\\tag_based_file_manager\\sample\\reut2-003.sgm'
p5941
aS'sample\\reut2-004.sgm'
p5942
aS'C:\\bharat\\Work\\OneDrive - NCSU\\github\\tag_based_file_manager\\sample\\reut2-004.sgm'
p5943
aS'sample\\reut2-005.sgm'
p5944
aS'C:\\bharat\\Work\\OneDrive - NCSU\\github\\tag_based_file_manager\\sample\\reut2-005.sgm'
p5945
aS'sample\\reut2-006.sgm'
p5946
aS'C:\\bharat\\Work\\OneDrive - NCSU\\github\\tag_based_file_manager\\sample\\reut2-006.sgm'
p5947
aS'sample\\reut2-007.sgm'
p5948
aS'C:\\bharat\\Work\\OneDrive - NCSU\\github\\tag_based_file_manager\\sample\\reut2-007.sgm'
p5949
aS'sample\\reut2-008.sgm'
p5950
aS'C:\\bharat\\Work\\OneDrive - NCSU\\github\\tag_based_file_manager\\sample\\reut2-008.sgm'
p5951
aS'sample\\reut2-009.sgm'
p5952
aS'C:\\bharat\\Work\\OneDrive - NCSU\\github\\tag_based_file_manager\\sample\\reut2-009.sgm'
p5953
aS'sample\\reut2-010.sgm'
p5954
aS'C:\\bharat\\Work\\OneDrive - NCSU\\github\\tag_based_file_manager\\sample\\reut2-010.sgm'
p5955
aS'sample\\reut2-011.sgm'
p5956
aS'C:\\bharat\\Work\\OneDrive - NCSU\\github\\tag_based_file_manager\\sample\\reut2-011.sgm'
p5957
aS'sample\\reut2-012.sgm'
p5958
aS'C:\\bharat\\Work\\OneDrive - NCSU\\github\\tag_based_file_manager\\sample\\reut2-012.sgm'
p5959
aS'sample\\reut2-013.sgm'
p5960
aS'C:\\bharat\\Work\\OneDrive - NCSU\\github\\tag_based_file_manager\\sample\\reut2-013.sgm'
p5961
aS'sample\\reut2-014.sgm'
p5962
aS'C:\\bharat\\Work\\OneDrive - NCSU\\github\\tag_based_file_manager\\sample\\reut2-014.sgm'
p5963
aS'sample\\reut2-015.sgm'
p5964
aS'C:\\bharat\\Work\\OneDrive - NCSU\\github\\tag_based_file_manager\\sample\\reut2-015.sgm'
p5965
aS'sample\\reut2-016.sgm'
p5966
aS'C:\\bharat\\Work\\OneDrive - NCSU\\github\\tag_based_file_manager\\sample\\reut2-016.sgm'
p5967
aS'sample\\reut2-017.sgm'
p5968
aS'C:\\bharat\\Work\\OneDrive - NCSU\\github\\tag_based_file_manager\\sample\\reut2-017.sgm'
p5969
aS'sample\\reut2-018.sgm'
p5970
aS'C:\\bharat\\Work\\OneDrive - NCSU\\github\\tag_based_file_manager\\sample\\reut2-018.sgm'
p5971
aS'sample\\reut2-019.sgm'
p5972
aS'C:\\bharat\\Work\\OneDrive - NCSU\\github\\tag_based_file_manager\\sample\\reut2-019.sgm'
p5973
aS'sample\\reut2-020.sgm'
p5974
aS'C:\\bharat\\Work\\OneDrive - NCSU\\github\\tag_based_file_manager\\sample\\reut2-020.sgm'
p5975
aS'sample\\reut2-021.sgm'
p5976
aS'C:\\bharat\\Work\\OneDrive - NCSU\\github\\tag_based_file_manager\\sample\\reut2-021.sgm'
p5977
asS'multilingual text'
p5978
(lp5979
g30
asS'eclipse foundation'
p5980
(lp5981
g8
asS'apply'
p5982
(lp5983
g7
ag8
asS'food shortages include  =\nbread grain'
p5984
(lp5985
g25
asS'pirates\xc2\x92 egg market\n\ntom'
p5986
(lp5987
g11
asS'qlucore omics explorer'
p5988
(lp5989
g30
asS'test set'
p5990
(lp5991
g14
asS'1940-2011\nsouth africa accounted'
p5992
(lp5993
g38
asS'</mknote> [variable]'
p5994
(lp5995
g14
asS'transportation fatalities'
p5996
(lp5997
g38
asS'zia-ul-haq'
p5998
(lp5999
g4
asS'@*\ninternational atomic energy authority'
p6000
(lp6001
g4
asS'gnu general public license version 2 cover'
p6002
(lp6003
g41
asS'the--a--a--\xc2\x94\n\n\xc2\x93poor\xc2\x94--\n\n\xc2\x93yes--poor'
p6004
(lp6005
g11
asS'data mining\npaw conference \xe2\x80\x93 predictive analytics world\nsdm conference \xe2\x80\x93 siam international conference'
p6006
(lp6007
g30
asS'digitisation project displayed'
p6008
(lp6009
g30
asS'dramatically increased data collection'
p6010
(lp6011
g30
asS'light consumer goods'
p6012
(lp6013
g25
asS'rand rebellion'
p6014
(lp6015
g38
asS'@end[itemize]\n\neast germany\n@begin[itemize]\nhead'
p6016
(lp6017
g4
asS'amiss\n\nmary\n\ntom contemplating\n\ndampened ardor\n\nyouth\n\nboyhood'
p6018
(lp6019
g11
asS'played robin hood'
p6020
(lp6021
g11
asS'outlier/change/deviation detection'
p6022
(lp6023
g30
asS'@*\ninternational coffee organisation'
p6024
(lp6025
g4
asS'1 april 1989\n   ty coon'
p6026
(lp6027
g41
asS'awful snug\nplace\xc2\x94--'
p6028
(lp6029
g11
asS'cooperate'
p6030
(lp6031
g7
ag8
asS'industrywide strike'
p6032
(lp6033
g38
asS'innovative applications'
p6034
(lp6035
g14
asS'central croatian highlands'
p6036
(lp6037
g25
asS'poor quality  coal'
p6038
(lp6039
g25
asS'south africa held'
p6040
(lp6041
g38
asS'strongly encourage researchers'
p6042
(lp6043
g14
asS'icde conference'
p6044
(lp6045
g30
asS'near-duplicate documents'
p6046
(lp6047
g14
asS'iii'
p6048
(lp6049
g7
ag8
asS'\xc2\x94\n\n\n\n\nchapter xxi\n\nvacation'
p6050
(lp6051
g11
asS'uranium deposits'
p6052
(lp6053
g38
asS'1994 cia world factbook'
p6054
(lp6055
g25
asS'bouvet island'
p6056
(lp6057
g25
asS'united states export administration regulations'
p6058
(lp6059
g41
asS'object code'
p6060
(lp6061
g41
asS'information processing'
p6062
(lp6063
g30
asS'american scientist'
p6064
(lp6065
g38
asS'reproduce'
p6066
(lp6067
g7
ag8
asS'yugoslav republic'
p6068
(lp6069
g25
asS'economy minister anders andersen'
p6070
(lp6071
g4
asS'ways\nincluding including checks'
p6072
(lp6073
g11
asS'conflict-of-law provisions'
p6074
(lp6075
g41
asS'microsoft academic search'
p6076
(lp6077
g30
asS'email contact links'
p6078
(lp6079
g11
asS'intellectual property rights needed'
p6080
(lp6081
g7
ag8
asS'^ mining licences'
p6082
(lp6083
g38
asS'agriculture minister'
p6084
(lp6085
g4
asS'magical thrill imparted'
p6086
(lp6087
g11
asS'reserved'
p6088
(lp6089
g7
ag8
asS'ore passes'
p6090
(lp6091
g38
asS'losing party responsible'
p6092
(lp6093
g41
asS'widely distributed test collections'
p6094
(lp6095
g14
asS'shrill jay swept'
p6096
(lp6097
g11
asS'data mining\nmldm conference \xe2\x80\x93 machine learning'
p6098
(lp6099
g30
asS'started processing uranium'
p6100
(lp6101
g38
asS'part thereof'
p6102
(lp6103
g41
asS'reserves'
p6104
(lp6105
g38
asS'\xc2\x92ll fetch _any_ wart'
p6106
(lp6107
g11
asS'proprietary licenses'
p6108
(lp6109
g30
asS'working conditions tolerable'
p6110
(lp6111
g38
asS'intellectual property laws'
p6112
(lp6113
g7
ag8
asS'fateful grip closing'
p6114
(lp6115
g11
asS'topics categories'
p6116
(lp6117
g14
asS'female line clear back'
p6118
(lp6119
g11
asS'permission'
p6120
(lp6121
g41
asS'preston martin'
p6122
(lp6123
g4
asS'send questions'
p6124
(lp6125
g14
asS'clear cold water close'
p6126
(lp6127
g11
asS'national bank'
p6128
(lp6129
g4
asS'responsibilities'
p6130
(lp6131
g7
ag8
asS'safe\nquarters\n\nchapter xxxiii'
p6132
(lp6133
g11
asS'feature selection'
p6134
(lp6135
g14
asS'predictive analytics \xe2\x80\x93'
p6136
(lp6137
g30
asS'\xd0\xa3\xd0\xba\xd1\x80\xd0\xb0\xd1\x97\xd0\xbd\xd1\x81\xd1\x8c\xd0\xba\xd0\xb0\nti\xe1\xba\xbfng vi\xe1\xbb\x87'
p6138
(lp6139
g30
asS'british virgin =\nislands'
p6140
(lp6141
g25
asS'license differs'
p6142
(lp6143
g41
asS'@*\nbrussels stock exchange/bourse'
p6144
(lp6145
g4
asS'@*\nmadrid stock exchange'
p6146
(lp6147
g4
asS'cultivable land'
p6148
(lp6149
g25
asS'evaluating text categorization'
p6150
(lp6151
g14
asS'noncommercial distribution'
p6152
(lp6153
g41
asS'training documents'
p6154
(lp6155
g14
asS'contributions distributed'
p6156
(lp6157
g7
ag8
asS'intelligent information retrieval'
p6158
(lp6159
g14
asS'found jim hollis acting'
p6160
(lp6161
g11
asS'training test divisions'
p6162
(lp6163
g14
asS'exchanges categories'
p6164
(lp6165
g14
asS'@*\nchicago mercantile exchange'
p6166
(lp6167
g4
asS'economic affairs\n        rudolf de korte'
p6168
(lp6169
g4
asS'a-priori hypothesis'
p6170
(lp6171
g30
asS'2013 big booty check date values'
p6172
(lp6173
g38
asS'public\ndomain ebooks'
p6174
(lp6175
g11
asS'82 billion usd'
p6176
(lp6177
g38
asS'miscellaneous manubgfactured articles'
p6178
(lp6179
g25
asS'attached\nfull project gutenberg-tm license'
p6180
(lp6181
g11
asS'blue light flit\npast'
p6182
(lp6183
g11
asS'knowledge discovery[38]\nrexer analytics data miner surveys'
p6184
(lp6185
g30
asS'lewis received'
p6186
(lp6187
g4
asS'machine learning algorithms written'
p6188
(lp6189
g30
asS'diamond fields'
p6190
(lp6191
g38
asS'covers machine learning'
p6192
(lp6193
g30
asS'pliant toes closed'
p6194
(lp6195
g11
asS'important sector'
p6196
(lp6197
g25
asS'commerce minister narain dutt tiwari'
p6198
(lp6199
g4
asS'inclined reefs/orebodies prevents mechanisation'
p6200
(lp6201
g38
asS'free status'
p6202
(lp6203
g41
asS'makes passes'
p6204
(lp6205
g41
asS'flow\xc2\x92ry _beds_'
p6206
(lp6207
g11
asS'strongly encourage'
p6208
(lp6209
g14
asS'^ geothermal gradient'
p6210
(lp6211
g38
asS'including'
p6212
(lp6213
g7
ag8
ag41
ag38
asS'@end[itemize]\n\ndenmark\n@begin[itemize]\n   prime minister poul schlueter'
p6214
(lp6215
g4
asS'enable data mining'
p6216
(lp6217
g30
asS'western=\n  sahara'
p6218
(lp6219
g25
asS'women\nvisited aunt polly'
p6220
(lp6221
g11
asS'categorization system'
p6222
(lp6223
g14
asS'south african mining industry'
p6224
(lp6225
g38
asS'climbing\nmont blanc'
p6226
(lp6227
g11
asS'sections vi'
p6228
(lp6229
g14
asS'official project gutenberg-tm web site'
p6230
(lp6231
g11
asS'project gutenberg-tm\n\nproject gutenberg-tm'
p6232
(lp6233
g11
asS'located'
p6234
(lp6235
g38
asS'</reuters> tags serve'
p6236
(lp6237
g14
asS'amit singhal'
p6238
(lp6239
g14
asS'wide crescent lopped'
p6240
(lp6241
g11
asS'prepare derivative works'
p6242
(lp6243
g7
ag8
asS'component assembly'
p6244
(lp6245
g25
asS'initial developer includes'
p6246
(lp6247
g41
asS'missing data'
p6248
(lp6249
g30
asS'choose'
p6250
(lp6251
g7
ag8
asS'original \xc2\x93plain\nvanilla ascii\xc2\x94'
p6252
(lp6253
g11
asS'effectiveness results'
p6254
(lp6255
g14
asS'complete machine-readable copy'
p6256
(lp6257
g41
asS'covered'
p6258
(lp6259
g7
ag8
ag41
asS'2004 java data mining standard'
p6260
(lp6261
g30
asS'chromium accounted'
p6262
(lp6263
g38
asS'000 metric tons'
p6264
(lp6265
g38
asS'combines covered software'
p6266
(lp6267
g41
asS'tech industry'
p6268
(lp6269
g30
asS'originator'
p6270
(lp6271
g7
ag8
asS'uneven\ndistribution'
p6272
(lp6273
g14
asS'writing david lewis'
p6274
(lp6275
g14
asS'substantial  military deliveries'
p6276
(lp6277
g25
asS'arab =\ncountries'
p6278
(lp6279
g25
asS'losses relating'
p6280
(lp6281
g7
ag8
asS'sufficient copyright rights'
p6282
(lp6283
g7
ag8
asS'needle\ncarried white thread'
p6284
(lp6285
g11
asS'consumer goods'
p6286
(lp6287
g25
asS'including coking  coal'
p6288
(lp6289
g25
asS'chapter xiii\n\ntom\xc2\x92'
p6290
(lp6291
g11
asS'boisterous\nwinds unanimously'
p6292
(lp6293
g11
asS'heavily subsidized =\nsector produces  fruit'
p6294
(lp6295
g25
asS'binary feature values'
p6296
(lp6297
g14
asS'@*\noslo stock exchange/bourse'
p6298
(lp6299
g4
asS'original reuters materials distributed'
p6300
(lp6301
g14
asS'simple version'
p6302
(lp6303
g30
asS'data file production'
p6304
(lp6305
g14
asS'straggling foot-passengers disappeared'
p6306
(lp6307
g11
asS'contents constitute'
p6308
(lp6309
g41
asS'tropical =\nproduce'
p6310
(lp6311
g25
asS'billion year'
p6312
(lp6313
g38
asS'large net food importer'
p6314
(lp6315
g25
asS'south african mineworkers'
p6316
(lp6317
g38
asS'ha\xc2\x92nted house'
p6318
(lp6319
g11
asS'positive examples'
p6320
(lp6321
g14
asS'works based'
p6322
(lp6323
g41
asS'permit incorporating'
p6324
(lp6325
g41
asS'corpus-based research'
p6326
(lp6327
g14
asS'foreign expatriates'
p6328
(lp6329
g38
asS'@*\nkuala lumpur stock exchange'
p6330
(lp6331
g4
asS'sartzetakis'
p6332
(lp6333
g4
asS'president karl otto poehl'
p6334
(lp6335
g4
asS'prime minister nikolai ryzhkov'
p6336
(lp6337
g4
asS'judge grants summary judgment'
p6338
(lp6339
g30
asS'parties'
p6340
(lp6341
g41
asS'visual data mining & predictive analysis'
p6342
(lp6343
g30
asS'economy minister robert graf'
p6344
(lp6345
g4
asS'french franc'
p6346
(lp6347
g4
asS'weird flash turned\nnight'
p6348
(lp6349
g11
asS'@end[itemize]\n\nthailand\n@begin[itemize]\n   president general prem tinsulanonda'
p6350
(lp6351
g4
asS'primary highest quality conference'
p6352
(lp6353
g30
asS'20 august 2012\njump'
p6354
(lp6355
g38
asS'finance corporation\nreferences[edit]\njump'
p6356
(lp6357
g38
asS'additions'
p6358
(lp6359
g7
ag8
asS'special'
p6360
(lp6361
g7
ag8
ag41
asS'central bank governor erik hoffmeyer'
p6362
(lp6363
g4
asS'collection\nseptember'
p6364
(lp6365
g14
asS'oil minister gholamreza aqazadeh'
p6366
(lp6367
g4
asS'main text'
p6368
(lp6369
g14
asS'defend'
p6370
(lp6371
g7
ag8
asS'loose rock'
p6372
(lp6373
g38
asS'orange river'
p6374
(lp6375
g38
asS'enforceable'
p6376
(lp6377
g7
ag8
asS'data produced'
p6378
(lp6379
g30
asS'analytics magazine'
p6380
(lp6381
g30
asS'safety belts'
p6382
(lp6383
g38
asS'multiple categories'
p6384
(lp6385
g14
asS'produced'
p6386
(lp6387
g14
asS'offering access'
p6388
(lp6389
g41
asS'positive\nexamples'
p6390
(lp6391
g14
asS'worth twenty dollars apiece--'
p6392
(lp6393
g11
asS'industrial supplies'
p6394
(lp6395
g25
asS'tinsulanonda'
p6396
(lp6397
g4
asS'actual learning'
p6398
(lp6399
g30
asS'operating mines'
p6400
(lp6401
g38
asS'coal future'
p6402
(lp6403
g38
asS'@*\nwinnipeg commodity exchange'
p6404
(lp6405
g4
asS'human\nindexer decided'
p6406
(lp6407
g14
asS'agricultural processing =\nindustries'
p6408
(lp6409
g25
asS'data mining experiments'
p6410
(lp6411
g30
asS'york'
p6412
(lp6413
g7
ag8
asS'individually obtain patent licenses'
p6414
(lp6415
g41
asS'knowledge mining'
p6416
(lp6417
g30
asS'accurate prediction results'
p6418
(lp6419
g30
asS'learning algorithms'
p6420
(lp6421
g14
asS'defining training set splits similar'
p6422
(lp6423
g14
asS'defining'
p6424
(lp6425
g14
asS'afternoon becky thatcher found'
p6426
(lp6427
g11
asS'databases\nedm conference \xe2\x80\x93 international conference'
p6428
(lp6429
g30
asS'determining'
p6430
(lp6431
g7
ag8
asS'learning algorithm'
p6432
(lp6433
g14
asS'poor quality soils'
p6434
(lp6435
g25
asS'european countries'
p6436
(lp6437
g25
asS'projects\nwikimedia commons\nlanguages\n\xd8\xa7\xd9\x84\xd8\xb9\xd8\xb1\xd8\xa8\xd9\x8a\xd8\xa9\n\xe0\xa6\x85\xe0\xa6\xb8\xe0\xa6\xae\xe0\xa7\x80\xe0\xa6\xaf\xe0\xa6\xbc\xe0\xa6\xbe\naz\xc9\x99rbaycanca\n\xe0\xa6\xac\xe0\xa6\xbe\xe0\xa6\x82\xe0\xa6\xb2\xe0\xa6\xbe\n\xd0\x91\xd1\x8a\xd0\xbb\xd0\xb3\xd0\xb0\xd1\x80\xd1\x81\xd0\xba\xd0\xb8\ncatal\xc3\xa0\n\xc4\x8c'
p6438
(lp6439
g30
asS'accident statistics\njump'
p6440
(lp6441
g38
asS'1960 sharpeville massacre'
p6442
(lp6443
g38
asS'afghanistan\nalbania \nalgeria \namerican-samoa\nandorra \nangola  \nanguilla\nantigua \nargentina  \naruba\naustralia  \naustria \nbahamas \nbahrain \nbangladesh \nbarbados\nbelgium \nbelize  \nbenin\nbermuda \nbhutan  \nbolivia \nbotswana\nbrazil  \nbritish-virgin-islands\nbrunei  \nbulgaria\nburkina-faso\nburma\nburundi \ncameroon\ncanada  \ncape-verde \ncayman-islands\ncentral-african-republic\nchad \nchile\nchina\ncolombia\ncongo\ncosta-rica \ncuba \ncyprus  \nczechoslovakia\ndenmark\ndjibouti\ndominica\ndominican-republic\neast-germany\necuador \negypt\nel-salvador\nequatorial-guinea\nethiopia\nfiji \nfinland \nfrance  \nfrench-guiana\ngabon\ngambia  \nghana\ngibraltar  \ngreece  \ngrenada \nguadeloupe \nguam \nguatemala  \nguinea  \nguinea-bissau\nguyana  \nhaiti\nhonduras\nhong-kong  \nhungary \niceland \nindia\nindonesia  \niran \niraq \nireland \nisrael  \nitaly\nivory-coast\njamaica \njapan\njordan  \nkampuchea  \nkenya\nkuwait  \nlaos \nlebanon \nlesotho \nliberia \nlibya\nliechtenstein\nluxembourg \nmacao\nmadagascar \nmalawi  \nmalaysia\nmali \nmalta\nmartinique \nmauritania \nmauritius  \nmexico  \nmonaco  \nmorocco \nmozambique \nnamibia \nnepal\nnetherlands\nnetherlands-antilles\nnew-caledonia\nnew-zealand\nnicaragua  \nniger\nnigeria \nnorth-korea\nnorway  \noman \npakistan\npanama  \npapua-new-guinea\nparaguay\nperu \nphilippines\npoland  \nportugal\nqatar\nromania \nrwanda  \nsaudi-arabia\nsenegal \nseychelles \nsierra-leone\nsingapore  \nsomalia \nsouth-africa\nsouth-korea\nspain\nsri-lanka  \nsudan\nsuriname\nswaziland  \nsweden  \nswitzerland\nsyria\ntaiwan  \ntanzania\nthailand\ntogo \ntonga\ntrinidad-tobago\ntunisia \nturkey  \nuae  \nuganda  \nuk\nuruguay \nus-virgin-islands\nusa\nussr\nvanuatu \nvatican \nvenezuela  \nvietnam \nwest-germany\nwestern-samoa\nyemen-arab-republic\nyemen-demo-republic\nyugoslavia \nzaire\nzambia  \nzimbabwe'
p6444
(lp6445
g274
asS'railroad  rolling =\nstock'
p6446
(lp6447
g25
asS'safe working practice'
p6448
(lp6449
g38
asS'appropriateness'
p6450
(lp6451
g7
ag8
asS'facilitate'
p6452
(lp6453
g7
ag8
asS'machine  building'
p6454
(lp6455
g25
asS'details type `show'
p6456
(lp6457
g41
asS'[1] data mining'
p6458
(lp6459
g30
asS'@end[itemize]\n\ncuba\n@begin[itemize]\nfidel castro'
p6460
(lp6461
g4
asS'tom sawyer swears'
p6462
(lp6463
g11
asS'lawrence erlbaum\nexternal links[edit]'
p6464
(lp6465
g30
asS'ship  repair'
p6466
(lp6467
g25
asS'gaudy piratical uniform'
p6468
(lp6469
g11
asS'occurrences'
p6470
(lp6471
g14
asS'prime minister yasuhiro nakasone'
p6472
(lp6473
g4
asS'separate works'
p6474
(lp6475
g41
asS'combined work based'
p6476
(lp6477
g41
asS'palm kernels'
p6478
(lp6479
g25
asS'manubgfactured consumer goods'
p6480
(lp6481
g25
asS'but--\n\ntom withered'
p6482
(lp6483
g11
asS'bright\njump'
p6484
(lp6485
g38
asS'adventures planned\n\n\n\n\nillustrations\n\ntom sawyer\n\ntom'
p6486
(lp6487
g11
asS'intention'
p6488
(lp6489
g30
asS'del caribe exportadores de azucar\n[group'
p6490
(lp6491
g4
asS'norfolk island pine =\nseed'
p6492
(lp6493
g25
asS'book data mining'
p6494
(lp6495
g30
asS'data mining\nkernel machine'
p6496
(lp6497
g30
asS'patent infringement'
p6498
(lp6499
g41
asS'cool\ngray dawn'
p6500
(lp6501
g11
asS'main article'
p6502
(lp6503
g38
asS'project gutenberg\nliterary archive foundation'
p6504
(lp6505
g11
asS'lonmin'
p6506
(lp6507
g38
asS'newby chief executive'
p6508
(lp6509
g11
asS'examples\ninclude'
p6510
(lp6511
g14
asS'advanced analytics'
p6512
(lp6513
g30
asS'textual material'
p6514
(lp6515
g14
asS'siam'
p6516
(lp6517
g30
asS'data mining solutions'
p6518
(lp6519
g30
asS'principal products  =\ninclude bananas'
p6520
(lp6521
g25
asS'lights dimly revealing'
p6522
(lp6523
g11
asS'ground truth'
p6524
(lp6525
g4
asS'sought desolate\nplaces'
p6526
(lp6527
g11
asS'tromelin island'
p6528
(lp6529
g25
asS'refined petroleum =\nproducts'
p6530
(lp6531
g25
asS'uranium mining'
p6532
(lp6533
g38
asS'modification follow'
p6534
(lp6535
g41
asS'natural language toolkit'
p6536
(lp6537
g30
asS'acquire'
p6538
(lp6539
g7
ag8
asS'full project gutenberg-tm\nlicense terms'
p6540
(lp6541
g11
asS'notices'
p6542
(lp6543
g41
asS'@end[itemize]\n\n\nsweden\n@begin[itemize]\n   prime minister ingvar carlsson'
p6544
(lp6545
g4
asS'agricultural  =\nproducts'
p6546
(lp6547
g25
asS'relying heavily'
p6548
(lp6549
g14
asS'pleasantly remind adults'
p6550
(lp6551
g11
asS'equitable basis'
p6552
(lp6553
g41
asS'federal courts'
p6554
(lp6555
g41
asS'contributor grants'
p6556
(lp6557
g7
ag8
asS'kdnuggets methodology poll\njump'
p6558
(lp6559
g30
asS'collectively'
p6560
(lp6561
g7
ag8
asS'retrieved 21 november 2016'
p6562
(lp6563
g38
asS'project gutenberg license included'
p6564
(lp6565
g11
asS'steeg'
p6566
(lp6567
g4
asS'social media mining\nsurveillance capitalism\nweb scraping\nreferences[edit]\n^ jump'
p6568
(lp6569
g30
asS'data set'
p6570
(lp6571
g30
ag14
asS'knowledge discovery'
p6572
(lp6573
g30
asS'cocon=\nut products'
p6574
(lp6575
g25
asS'reproduction'
p6576
(lp6577
g7
ag8
asS'finance minister jaromir zak'
p6578
(lp6579
g4
asS'depths unattainable'
p6580
(lp6581
g38
asS'warranty\n\n11'
p6582
(lp6583
g41
asS'aquino'
p6584
(lp6585
g4
asS'total 674 categories mentioned'
p6586
(lp6587
g4
asS'fifteenth annual international acm sigir conference'
p6588
(lp6589
g14
asS'nuclear plants'
p6590
(lp6591
g38
asS'document-internal tags'
p6592
(lp6593
g14
asS'unavailability'
p6594
(lp6595
g7
ag8
asS'small livestock sector  includes =\ncattle'
p6596
(lp6597
g25
asS'selling prescription information'
p6598
(lp6599
g30
asS'blix'
p6600
(lp6601
g4
asS'trade policy willy de clercq'
p6602
(lp6603
g4
asS'assurances'
p6604
(lp6605
g7
ag8
asS'light assembly industries =\nbased'
p6606
(lp6607
g25
asS'trust territory'
p6608
(lp6609
g25
asS'mutual economic assistance'
p6610
(lp6611
g4
asS'kilometre depth'
p6612
(lp6613
g38
asS'promptly notify'
p6614
(lp6615
g7
ag8
asS'wikipedia\xc2\xae'
p6616
(lp6617
g38
asS'legal category'
p6618
(lp6619
g14
asS'agriculture minister iris rezende'
p6620
(lp6621
g4
asS'adequate =\nrainfall'
p6622
(lp6623
g25
asS'forest products'
p6624
(lp6625
g25
asS'larger works'
p6626
(lp6627
g41
asS'reuters tags'
p6628
(lp6629
g14
asS'united =\nkingdom'
p6630
(lp6631
g25
asS'central bank governor alhaji abdul ahmed'
p6632
(lp6633
g4
asS'motor =\nvehicle assembly'
p6634
(lp6635
g25
asS'small-size =\nfarms predominate'
p6636
(lp6637
g25
asS'worldwide'
p6638
(lp6639
g7
ag8
asS'research purposes'
p6640
(lp6641
g14
asS'language engineering tool'
p6642
(lp6643
g30
asS'discovery algorithms'
p6644
(lp6645
g30
asS'statistical natural language processing'
p6646
(lp6647
g30
asS'tuple\nrepresentation'
p6648
(lp6649
g14
asS'single product'
p6650
(lp6651
g41
asS'rare earth =\noxide'
p6652
(lp6653
g25
asS'copyright law'
p6654
(lp6655
g41
asS'ghosts\n\nchapter xxvi'
p6656
(lp6657
g11
asS'uk copyright law'
p6658
(lp6659
g30
asS'project\ngutenberg'
p6660
(lp6661
g11
asS'anonymous ftp'
p6662
(lp6663
g14
asS'----------\nnotice pursuant'
p6664
(lp6665
g41
asS'finance minister otto stich'
p6666
(lp6667
g4
asS'project gutenberg web pages'
p6668
(lp6669
g11
asS'including grains'
p6670
(lp6671
g25
asS'yiming yang'
p6672
(lp6673
g14
asS'deadly combination'
p6674
(lp6675
g38
asS'text'
p6676
(lp6677
g30
ag14
asS'production\njump'
p6678
(lp6679
g38
asS'considerable aid'
p6680
(lp6681
g14
asS'contemptuous smile flitted'
p6682
(lp6683
g11
asS'economic advisers'
p6684
(lp6685
g4
asS'widow douglas\xc2\x92\nprotection introduced'
p6686
(lp6687
g11
asS'information\nretrieval'
p6688
(lp6689
g14
asS'gold exports provided sufficient capital'
p6690
(lp6691
g38
asS'bring'
p6692
(lp6693
g7
ag8
asS'wake island'
p6694
(lp6695
g25
asS'agrees'
p6696
(lp6697
g7
ag8
asS'sgml format'
p6698
(lp6699
g14
asS'litigation'
p6700
(lp6701
g7
ag8
asS'libyan leader'
p6702
(lp6703
g4
asS'ieee paper'
p6704
(lp6705
g4
asS'knowledge'
p6706
(lp6707
g7
ag8
ag14
asS'electronic\nworks'
p6708
(lp6709
g11
asS'computer decision support system'
p6710
(lp6711
g30
asS'jar'
p6712
(lp6713
g7
asS'interactive mode'
p6714
(lp6715
g41
asS'complete agreement'
p6716
(lp6717
g41
asS'finance minister gustavo saberbein chevalier'
p6718
(lp6719
g4
asS'annual fish catch'
p6720
(lp6721
g25
asS'comprehensive data analytics framework'
p6722
(lp6723
g30
asS'shallower mine'
p6724
(lp6725
g38
asS've=\ngetables'
p6726
(lp6727
g25
asS'ftp sites maintained'
p6728
(lp6729
g14
asS'accompanying delays worked'
p6730
(lp6731
g11
asS'hypothetical commands `show'
p6732
(lp6733
g41
asS'dtd file lewis'
p6734
(lp6735
g14
asS'means'
p6736
(lp6737
g7
ag8
asS'statistical analysis & data mining applications'
p6738
(lp6739
g30
asS'test splits'
p6740
(lp6741
g14
asS'south africaindustry'
p6742
(lp6743
g38
asS'europe[edit]\ndue'
p6744
(lp6745
g30
asS'port louis'
p6746
(lp6747
g25
asS'small quantities'
p6748
(lp6749
g25
asS'jpg'
p6750
(lp6751
S'sample\\people.jpg'
p6752
aS'C:\\bharat\\Work\\OneDrive - NCSU\\github\\tag_based_file_manager\\sample\\people.jpg'
p6753
asS'exchanges'
p6754
(lp6755
g14
asS'central bank governor rolf kullberg'
p6756
(lp6757
g4
asS'central bank governor mohammed salaheddin hamid'
p6758
(lp6759
g4
asS'infringements caused'
p6760
(lp6761
g41
asS'structural concrete =\nproducts'
p6762
(lp6763
g25
asS'domain\nknowledge'
p6764
(lp6765
g14
asS'copyright notice'
p6766
(lp6767
g41
asS'found joe\nharper studying'
p6768
(lp6769
g11
asS'educational corporation organized'
p6770
(lp6771
g11
asS'labor force'
p6772
(lp6773
g25
asS'automated\ntraining'
p6774
(lp6775
g14
asS'data cleaning removes'
p6776
(lp6777
g30
asS'category sets'
p6778
(lp6779
g14
asS'industry minister jose concepcion'
p6780
(lp6781
g4
asS'industrial goods'
p6782
(lp6783
g25
asS'despair\n\nchapter xxxi'
p6784
(lp6785
g11
asS'\xc2\x94\n\ntom urged--huck held back'
p6786
(lp6787
g11
asS'evren'
p6788
(lp6789
g4
asS'entire risk'
p6790
(lp6791
g41
asS'kdnuggets methodology poll'
p6792
(lp6793
g30
asS'finance minister carlos solchaga'
p6794
(lp6795
g4
asS'imports=\n major share'
p6796
(lp6797
g25
asS'part series'
p6798
(lp6799
g30
asS'@*\ninternational lead'
p6800
(lp6801
g4
asS'version 1'
p6802
(lp6803
g41
asS'module'
p6804
(lp6805
g41
asS'project\ngutenberg-tm electronic works'
p6806
(lp6807
g11
asS'gold\n1'
p6808
(lp6809
g38
asS'big data\xd7\xb3'
p6810
(lp6811
g30
asS'information extraction'
p6812
(lp6813
g30
asS'reuters-21578 collection'
p6814
(lp6815
g14
asS'[25] harmony gold mining'
p6816
(lp6817
g38
asS'original reuters corpus'
p6818
(lp6819
g14
asS'mineral commodity summaries'
p6820
(lp6821
g38
asS'distributing project gutenberg-tm electronic works'
p6822
(lp6823
g11
asS'presently jeff thatcher hove'
p6824
(lp6825
g11
asS'blasting smoke'
p6826
(lp6827
g38
asS'765 unused documents'
p6828
(lp6829
g14
asS'content analysis'
p6830
(lp6831
g14
asS'communist party politburo'
p6832
(lp6833
g4
asS'534-531 [1]\njump'
p6834
(lp6835
g38
asS'state'
p6836
(lp6837
g7
ag8
ag41
asS'}\n\n@inproceedings{lewis92b'
p6838
(lp6839
g14
asS'carlsson'
p6840
(lp6841
g4
asS'power production'
p6842
(lp6843
g38
asS'reuters-22173\ncollection'
p6844
(lp6845
g14
asS'similar metals'
p6846
(lp6847
g38
asS'absolutely clear'
p6848
(lp6849
g41
asS'motor vehicle  parts'
p6850
(lp6851
g25
asS'industrial consumer  =\ngoods'
p6852
(lp6853
g25
asS'source code'
p6854
(lp6855
g7
ag8
ag41
asS'^ charlotte mathews'
p6856
(lp6857
g38
asS'python programming language\ntorch'
p6858
(lp6859
g30
asS'light consumer  =\ngoods'
p6860
(lp6861
g25
asS'british indian ocean =\nterritory'
p6862
(lp6863
g25
asS'small  =\nnumbers'
p6864
(lp6865
g25
asS'make exceptions'
p6866
(lp6867
g41
asS'lawsuit'
p6868
(lp6869
g7
ag8
asS'staff howard baker'
p6870
(lp6871
g4
asS'fish  catch =\npotential'
p6872
(lp6873
g25
asS'commands'
p6874
(lp6875
g41
asS'[6] south africa'
p6876
(lp6877
g38
asS'wide spread\npublic support'
p6878
(lp6879
g11
asS'million metric tons annually'
p6880
(lp6881
g25
asS'knowledge engineering review'
p6882
(lp6883
g30
asS'parties provide'
p6884
(lp6885
g41
asS'strong interest'
p6886
(lp6887
g14
asS'finance minister mailson nobrega'
p6888
(lp6889
g4
asS'deepwater harbors'
p6890
(lp6891
g25
asS'participant terminate prospectively'
p6892
(lp6893
g41
asS'wood chip  production'
p6894
(lp6895
g25
asS'chemical information'
p6896
(lp6897
g30
asS'data science'
p6898
(lp6899
g30
asS'licensable'
p6900
(lp6901
g41
asS'[37]\nsoftware[edit]'
p6902
(lp6903
g30
asS'extent permitted'
p6904
(lp6905
g41
asS'latin american'
p6906
(lp6907
g4
asS'brazilian cruzado'
p6908
(lp6909
g4
asS'respect'
p6910
(lp6911
g7
ag8
asS'[dead link]\njump'
p6912
(lp6913
g38
asS'temporarily trapped underground'
p6914
(lp6915
g38
asS'pair appears'
p6916
(lp6917
g14
asS'applies'
p6918
(lp6919
g41
asS'problems introduced'
p6920
(lp6921
g41
asS'economy minister lee ta-hai'
p6922
(lp6923
g4
asS'old-fashioned western kind'
p6924
(lp6925
g11
asS'addition'
p6926
(lp6927
g7
ag8
asS'revoked \xe2\x80\x93 mantashe'
p6928
(lp6929
g38
asS'business day live'
p6930
(lp6931
g38
asS'zinc study group'
p6932
(lp6933
g4
asS'cousin mary danced'
p6934
(lp6935
g11
asS'prime minister zhao ziyang'
p6936
(lp6937
g4
asS'analytics \xe2\x80\x93'
p6938
(lp6939
g30
asS'@end[itemize]\n\nindonesia\n@begin[itemize]\n   president general suharto'
p6940
(lp6941
g4
asS'statistical learning'
p6942
(lp6943
g30
asS'academic press'
p6944
(lp6945
g30
asS'@end[itemize]\n\nnigeria\n@begin[itemize]\n   president general ibrahim babangida'
p6946
(lp6947
g4
asS'\xc2\x93rebecca thatcher\xc2\x94 [tom glanced'
p6948
(lp6949
g11
asS'industrial =\ncenter'
p6950
(lp6951
g25
asS'collective works based'
p6952
(lp6953
g41
asS'declining production'
p6954
(lp6955
g38
asS'c'
(lp6956
S'sample\\example.c'
p6957
aS'C:\\bharat\\Work\\OneDrive - NCSU\\github\\tag_based_file_manager\\sample\\example.c'
p6958
asS'indian war\n\nchapter xvii'
p6959
(lp6960
g11
asS'uranium-rich south africa good environment'
p6961
(lp6962
g38
asS'mineral products'
p6963
(lp6964
g25
asS'covered software'
p6965
(lp6966
g41
asS'calci=\num carbide'
p6967
(lp6968
g25
asS'distribution conditions'
p6969
(lp6970
g41
asS'finance minister palle simonsen'
p6971
(lp6972
g4
asS'ethical issues'
p6973
(lp6974
g30
asS'rural development minister gurdial singh dhillon'
p6975
(lp6976
g4
asS'covered software prove defective'
p6977
(lp6978
g41
asS'third-party machine-learning packages written'
p6979
(lp6980
g30
asS'modification\n\n0'
p6981
(lp6982
g41
asS'slightly lightened\nweight'
p6983
(lp6984
g11
asS'non-infringement'
p6985
(lp6986
g7
ag8
asS'military history'
p6987
(lp6988
g38
asS'categories \ncategory set  categories'
p6989
(lp6990
g14
asS'offshore islands grow  olives'
p6991
(lp6992
g25
asS'machine learning forensics'
p6993
(lp6994
g30
asS'----------------------------------------------------------------------------------------------------\n\ncommon public license version 0'
p6995
(lp6996
g7
asS'economy minister youssri mustapha'
p6997
(lp6998
g4
asS'husak'
p6999
(lp7000
g4
asS'stared around--smiled grimly'
p7001
(lp7002
g11
asS'lietuvi\xc5\xb3\nmagyar\n\xd0\x9c\xd0\xb0\xd0\xba\xd0\xb5\xd0\xb4\xd0\xbe\xd0\xbd\xd1\x81\xd0\xba\xd0\xb8\n\xe0\xb4\xae\xe0\xb4\xb2\xe0\xb4\xaf\xe0\xb4\xbe\xe0\xb4\xb3\xe0\xb4\x82\n\xe0\xa4\xae\xe0\xa4\xb0\xe0\xa4\xbe\xe0\xa4\xa0\xe0\xa5\x80\n\xd0\x9c\xd0\xbe\xd0\xbd\xd0\xb3\xd0\xbe\xd0\xbb\n\xe1\x80\x99\xe1\x80\xbc\xe1\x80\x94\xe1\x80\xba\xe1\x80\x99\xe1\x80\xac\xe1\x80\x98\xe1\x80\xac\xe1\x80\x9e\xe1\x80\xac\nnederlands\n\xe6\x97\xa5\xe6\x9c\xac\xe8\xaa\x9e\nnorsk bokm\xc3\xa5'
p7003
(lp7004
g30
asS'spires fade fast'
p7005
(lp7006
g11
asS'media related'
p7007
(lp7008
g30
asS'tar'
p7009
(lp7010
g14
asS'@*\n@end[format]\n@blankspace[3 lines]\n________________________________________________________________\n@heading[exchange codes'
p7011
(lp7012
g4
asS'miles underground'
p7013
(lp7014
g38
asS'high number'
p7015
(lp7016
g38
asS'java open-source project'
p7017
(lp7018
g30
asS'hardware'
p7019
(lp7020
g7
ag8
asS'human curiosity presently began'
p7021
(lp7022
g11
asS'avi'
p7023
(lp7024
S'sample\\test.avi'
p7025
aS'C:\\bharat\\Work\\OneDrive - NCSU\\github\\tag_based_file_manager\\sample\\test.avi'
p7026
asS'major food =\ncorn'
p7027
(lp7028
g25
asS'wikimedia commons'
p7029
(lp7030
g30
asS'regression'
p7031
(lp7032
g30
asS'digital data'
p7033
(lp7034
g30
asS'900 gold fields jobs'
p7035
(lp7036
g38
asS'chidanand apt{'
p7037
(lp7038
g14
asS'application sourcecode'
p7039
(lp7040
g30
asS'wider data set'
p7041
(lp7042
g30
asS'sgml\ntags'
p7043
(lp7044
g14
asS'linked independent module'
p7045
(lp7046
g41
asS'assign correctly'
p7047
(lp7048
g14
asS'executable runs'
p7049
(lp7050
g41
asS'black flag unfurled'
p7051
(lp7052
g11
asS'notwithstanding section 2'
p7053
(lp7054
g41
asS'initial agreement steward'
p7055
(lp7056
g7
ag8
asS'satisfactory reference'
p7057
(lp7058
g38
asS'@end[itemize]\n\n\n\njapan\n@begin[itemize]\n   prime minister noboru takeshita'
p7059
(lp7060
g4
asS'africa\ncategories'
p7061
(lp7062
g38
asS'long white hair flowed'
p7063
(lp7064
g11
asS'court requires'
p7065
(lp7066
g7
ag8
asS'south sandwich islands'
p7067
(lp7068
g25
asS'support vector machines'
p7069
(lp7070
g30
asS'redistributing project gutenberg-tm\nelectronic works\n\n1'
p7071
(lp7072
g11
asS'administrative =\ncenter'
p7073
(lp7074
g25
asS'effect'
p7075
(lp7076
g41
asS'finance minister ferdinand lacina'
p7077
(lp7078
g4
asS'machine learning material'
p7079
(lp7080
g30
asS'largest producer[4]'
p7081
(lp7082
g38
asS'root crops'
p7083
(lp7084
g25
asS'damages arising'
p7085
(lp7086
g41
asS'mistake made\n\nchapter viii'
p7087
(lp7088
g11
asS'kimberley'
p7089
(lp7090
g38
asS'largest primary producers'
p7091
(lp7092
g38
asS'web pages'
p7093
(lp7094
g14
asS'@end[itemize]\n\nswitzerland\n@begin[itemize]\n   economy minister jean-pascal delamuraz'
p7095
(lp7096
g4
asS'state erich honecker'
p7097
(lp7098
g4
asS'learnt long\nago'
p7099
(lp7100
g11
asS'tautona mine'
p7101
(lp7102
g38
asS'finance minister jaime ongpin'
p7103
(lp7104
g4
asS'identify multiple groups'
p7105
(lp7106
g30
asS'wholesale price index'
p7107
(lp7108
g4
asS'arising'
p7109
(lp7110
g7
ag8
asS'hide-and-seek frolicking began'
p7111
(lp7112
g11
asS'liability incurred'
p7113
(lp7114
g41
asS'data mining projects'
p7115
(lp7116
g30
asS'topics fields'
p7117
(lp7118
g14
asS'marc ringuette'
p7119
(lp7120
g14
asS'negligence'
p7121
(lp7122
g41
asS'day mightily tormented tom\xc2\x92'
p7123
(lp7124
g11
asS'reuters-21578 text\ncategorization test collection'
p7125
(lp7126
g14
asS'deep gold mines'
p7127
(lp7128
g38
asS'obtain'
p7129
(lp7130
g7
ag8
ag41
asS'chapter ii\n\nsaturday morning'
p7131
(lp7132
g11
asS'finance minister vicente jayme'
p7133
(lp7134
g4
asS'chapter iii\n\ntom presented'
p7135
(lp7136
g11
asS'recipient understands'
p7137
(lp7138
g7
ag8
asS'offering equivalent access'
p7139
(lp7140
g41
asS'validly granted'
p7141
(lp7142
g41
asS'years'
p7143
(lp7144
g38
asS'represent\ndocuments'
p7145
(lp7146
g14
asS'distributed subject'
p7147
(lp7148
g7
ag8
asS'peculiarly afflicting sermon'
p7149
(lp7150
g11
asS'huck\ndon\xc2\x92t--_they_ don\xc2\x92'
p7151
(lp7152
g11
asS'statistical methods'
p7153
(lp7154
g30
asS'accompanying program'
p7155
(lp7156
g7
ag8
asS'reuters-21578 data'
p7157
(lp7158
g14
asS'entire'
p7159
(lp7160
g41
asS'unusual data records'
p7161
(lp7162
g30
asS'unsafe mining'
p7163
(lp7164
g38
asS'andorra la vella'
p7165
(lp7166
g25
asS'famous fried-egg feast'
p7167
(lp7168
g11
asS'copyright interest'
p7169
(lp7170
g41
asS'add'
p7171
(lp7172
g41
asS'mexican peso'
p7173
(lp7174
g4
asS'5'
(lp7175
g7
ag8
asS'animal =\nhusbandry'
p7176
(lp7177
g25
asS'reformed'
p7178
(lp7179
g7
ag8
asS'details'
p7180
(lp7181
g41
asS'annual conference'
p7182
(lp7183
g14
asS'school\n\nliterature\n\ntom declaims\n\nexamination evening'
p7184
(lp7185
g11
asS'provisions'
p7186
(lp7187
g7
ag8
ag41
asS'south african president'
p7188
(lp7189
g38
asS'mikulic'
p7190
(lp7191
g4
asS'@end[itemize]\n\npoland\n@begin[itemize]\nhead'
p7192
(lp7193
g4
asS'element\ndelimited'
p7194
(lp7195
g14
asS'important sections'
p7196
(lp7197
g14
asS'splits based'
p7198
(lp7199
g14
asS'population pastoral nomads  =\nherding goats'
p7200
(lp7201
g25
asS'june 1991\n\n\ncopyright'
p7202
(lp7203
g41
asS'thing appealed strongly'
p7204
(lp7205
g11
asS'data mining government'
p7206
(lp7207
g30
asS'project gutenberg-tm works calculated'
p7208
(lp7209
g11
asS'climax\n\nchapter vi'
p7210
(lp7211
g11
asS'loss'
p7212
(lp7213
g7
ag8
asS'14704/6746 split'
p7214
(lp7215
g14
asS'outstanding deepwater =\nharbor'
p7216
(lp7217
g25
asS'close tag'
p7218
(lp7219
g14
asS'excluding'
p7220
(lp7221
g41
asS'booktitle = sigir94'
p7222
(lp7223
g14
asS'copyright notices contained'
p7224
(lp7225
g7
ag8
asS'leading product'
p7226
(lp7227
g38
asS'united states[edit]'
p7228
(lp7229
g30
asS'main driving force[1]'
p7230
(lp7231
g38
asS'additional files'
p7232
(lp7233
g14
asS'morgan kaufmann'
p7234
(lp7235
g14
asS'[9]\ngold'
p7236
(lp7237
g38
asS'total information awareness program'
p7238
(lp7239
g30
asS'page'
p7240
(lp7241
g38
asS'baker island'
p7242
(lp7243
g25
asS'technology law review'
p7244
(lp7245
g30
asS'witwatersrand area'
p7246
(lp7247
g38
asS'\xc4\x83\n\xd0\xa0\xd1\x83\xd1\x81\xd1\x81\xd0\xba\xd0\xb8\xd0\xb9\nshqip\nsimple english\nsloven\xc4\x8dina\nsloven\xc5\xa1\xc4\x8dina\n\xd0\xa1\xd1\x80\xd0\xbf\xd1\x81\xd0\xba\xd0\xb8 / srpski\nsrpskohrvatski / \xd1\x81\xd1\x80\xd0\xbf\xd1\x81\xd0\xba\xd0\xbe\xd1\x85\xd1\x80\xd0\xb2\xd0\xb0\xd1\x82\xd1\x81\xd0\xba\xd0\xb8\nbasa sunda\nsuomi\nsvenska\n\xe0\xae\xa4\xe0\xae\xae\xe0\xae\xbf\xe0\xae\xb4\xe0\xaf\x8d\n\xe0\xb9\x84\xe0\xb8\x97\xe0\xb8\xa2\n\xd0\xa2\xd0\xbe\xd2\xb7\xd0\xb8\xd0\xba\xd3\xa3'
p7248
(lp7249
g30
asS'positive test examples'
p7250
(lp7251
g14
asS'raw reuters-22173 dataset*'
p7252
(lp7253
g14
asS'create potential liability'
p7254
(lp7255
g7
ag8
asS'exception statement'
p7256
(lp7257
g41
asS'library'
p7258
(lp7259
g41
asS'page\nprint/export\ncreate'
p7260
(lp7261
g30
ag38
asS'lifting pretty warning fingers'
p7262
(lp7263
g11
asS'software interchange'
p7264
(lp7265
g41
asS'industrial =\nproducts'
p7266
(lp7267
g25
asS'consequential damages'
p7268
(lp7269
g7
ag8
ag41
asS'{sparck jones}'
p7270
(lp7271
g14
asS'semi-automatic analysis'
p7272
(lp7273
g30
asS'legal entity exercising rights'
p7274
(lp7275
g41
asS'livestock production accounts ='
p7276
(lp7277
g25
asS'news\nstory [hayes90b]'
p7278
(lp7279
g14
asS'mines'
p7280
(lp7281
g38
asS'royalty-free patent license'
p7282
(lp7283
g7
ag8
asS'eclipse public license'
p7284
(lp7285
g8
asS'york coffee'
p7286
(lp7287
g4
asS'applicable version'
p7288
(lp7289
g41
asS'conference\n\ntreasures\n\nuncle jake\n\nbuck'
p7290
(lp7291
g11
asS'reuters categories\ndavid'
p7292
(lp7293
g4
asS'periodic tax returns'
p7294
(lp7295
g11
asS'warranties'
p7296
(lp7297
g7
ag8
ag41
asS'prime minister jacques chirac'
p7298
(lp7299
g4
asS'data mining solutions report[40]\ngartner 2008'
p7300
(lp7301
g30
asS'hoss williams to-night'
p7302
(lp7303
g11
asS'big raindrops fell pattering'
p7304
(lp7305
g11
asS'terminate automatically'
p7306
(lp7307
g41
asS'found muff potter washing'
p7308
(lp7309
g11
asS'bandar seri begawan'
p7310
(lp7311
g25
asS'forestry sectors =\nprovide employment'
p7312
(lp7313
g25
asS'light industry =\nproduces basic  textiles'
p7314
(lp7315
g25
asS'offshore oil deposits'
p7316
(lp7317
g25
asS'understandable structure'
p7318
(lp7319
g30
asS'encourage researchers'
p7320
(lp7321
g14
asS'rousing act\n\ntail piece'
p7322
(lp7323
g11
asS'injun joe\n\nchapter xxv'
p7324
(lp7325
g11
asS'training set'
p7326
(lp7327
g14
asS'reuters\nannotations'
p7328
(lp7329
g14
asS'actual'
p7330
(lp7331
g7
ag8
asS'national security'
p7332
(lp7333
g30
asS'fatality rate'
p7334
(lp7335
g38
asS'mirror group'
p7336
(lp7337
g4
asS'30 days'
p7338
(lp7339
g41
asS'examples belonging'
p7340
(lp7341
g14
asS'individual-level data deducible'
p7342
(lp7343
g30
asS'distributor hereunder prior'
p7344
(lp7345
g41
asS'diversified crop'
p7346
(lp7347
g25
asS'york commodity exchange'
p7348
(lp7349
g4
asS'software'
p7350
(lp7351
g7
ag8
ag41
asS'warranty'
p7352
(lp7353
g7
ag8
ag41
asS'suharto'
p7354
(lp7355
g4
asS'fertile soil'
p7356
(lp7357
g25
asS'cussed\nsmothery houses'
p7358
(lp7359
g11
asS'eventually rescued'
p7360
(lp7361
g38
asS'@*\nlatin american free trade association'
p7362
(lp7363
g4
asS'proofread\npublic domain works'
p7364
(lp7365
g11
asS'data files'
p7366
(lp7367
g14
asS'making general havoc'
p7368
(lp7369
g11
asS'switzer=\nland'
p7370
(lp7371
g25
asS'premier professional body'
p7372
(lp7373
g30
asS'sibanye hoards uranium'
p7374
(lp7375
g38
asS'landing fifty yards\ndownstream'
p7376
(lp7377
g11
asS'rafters tom sawyer'
p7378
(lp7379
g11
asS'south africa remains'
p7380
(lp7381
g38
asS'discordant voice profaned'
p7382
(lp7383
g11
asS'@*\ninternational tin council'
p7384
(lp7385
g4
asS'registered trademark'
p7386
(lp7387
g38
asS'transfer'
p7388
(lp7389
g7
ag8
asS'international energy agency executive director helga steeg'
p7390
(lp7391
g4
asS'contributors related'
p7392
(lp7393
g7
ag8
asS'bypass stories'
p7394
(lp7395
g14
asS'normal structure'
p7396
(lp7397
g14
asS'paper mail'
p7398
(lp7399
g41
asS'general good time\n\ndemoralized\n\njoe harper'
p7400
(lp7401
g11
asS'@end[itemize]\n\nbelgium\n@begin[itemize]\n   prime minister wilfried martens'
p7402
(lp7403
g4
asS'development'
p7404
(lp7405
g38
asS'outstanding shares'
p7406
(lp7407
g41
asS'negro men stood guard'
p7408
(lp7409
g11
asS'compressed air pipe ruptured due'
p7410
(lp7411
g38
asS'surplus food producer'
p7412
(lp7413
g25
asS'artificial intelligence'
p7414
(lp7415
g30
ag14
asS'nearby british colonial government'
p7416
(lp7417
g38
asS'notable examples'
p7418
(lp7419
g30
asS'jacques santer'
p7420
(lp7421
g4
asS'2012 lonmin strike\n2'
p7422
(lp7423
g38
asS'feature extraction'
p7424
(lp7425
g14
asS'trade options exchange'
p7426
(lp7427
g4
asS'book\ndownload'
p7428
(lp7429
g38
asS'data warehouse\n[show]'
p7430
(lp7431
g30
asS'government rights clause'
p7432
(lp7433
g41
asS'freely sharing project gutenberg-tm works'
p7434
(lp7435
g11
asS'general public license applies'
p7436
(lp7437
g41
asS'karoo south africa'
p7438
(lp7439
g38
asS'data mining[edit]\ndata mining involves'
p7440
(lp7441
g30
asS'current donation\nmethods'
p7442
(lp7443
g11
asS'finance minister svetozar rikanovic'
p7444
(lp7445
g4
asS'swarthy sun-tanned skin'
p7446
(lp7447
g11
asS'basin'
p7448
(lp7449
g38
asS'platinum supply equation'
p7450
(lp7451
g38
asS'constitute'
p7452
(lp7453
g41
asS'noun phrases'
p7454
(lp7455
g14
asS'made'
p7456
(lp7457
g7
ag8
ag41
asS'operating system'
p7458
(lp7459
g41
asS'`show'
p7460
(lp7461
g41
asS'wikipedia\nwikipedia store\ninteraction'
p7462
(lp7463
g30
ag38
asS'references\n12'
p7464
(lp7465
g30
asS'project gutenberg-tm electronic\nworks'
p7466
(lp7467
g11
asS'reserve bank'
p7468
(lp7469
g4
asS'palladium[edit]\nsouth africa produces'
p7470
(lp7471
g38
asS'published studies'
p7472
(lp7473
g14
asS'christmas island'
p7474
(lp7475
g25
asS'copyright law[edit]\nsituation'
p7476
(lp7477
g30
asS'chapter xxiv\n\ntom'
p7478
(lp7479
g11
asS'za/article/2014-south-african-platinum-strike-longest-wage-strike-south-africa\n[show]'
p7480
(lp7481
g38
asS'tags optionally delimit elements inside'
p7482
(lp7483
g14
asS'distribution'
p7484
(lp7485
g7
ag8
ag41
asS'cgisplit attributes'
p7486
(lp7487
g14
asS'primary south african sources'
p7488
(lp7489
g38
asS'forming\nreuters-21578'
p7490
(lp7491
g14
asS'president hojatoleslam ali khameini'
p7492
(lp7493
g4
asS'regression analysis'
p7494
(lp7495
g30
asS'contact lewis@research'
p7496
(lp7497
g14
asS'virgin =\nislands'
p7498
(lp7499
g25
asS'people categories'
p7500
(lp7501
g14
asS'instalment debt/consumer credit'
p7502
(lp7503
g4
asS'south african mines'
p7504
(lp7505
g38
asS'sorrowful sight presented'
p7506
(lp7507
g11
asS'nuclear power'
p7508
(lp7509
g38
asS'competent rocks makes'
p7510
(lp7511
g38
asS'minor production'
p7512
(lp7513
g25
asS'list\n  orgs                           56                  56\n  exchanges                      39                  39 \n  places'
p7514
(lp7515
g4
asS'year = 1990\n}\n\n@inproceedings{hayes90b'
p7516
(lp7517
g14
asS'gold exports'
p7518
(lp7519
g38
asS'text-based intelligent systems'
p7520
(lp7521
g14
asS'finance minister antonio gava'
p7522
(lp7523
g4
asS'spacious temporary platform'
p7524
(lp7525
g11
asS'contest'
p7526
(lp7527
g41
asS'effectiveness measures'
p7528
(lp7529
g14
asS'agreement steward'
p7530
(lp7531
g7
ag8
asS'tom groaned louder'
p7532
(lp7533
g11
asS'proprietary programs'
p7534
(lp7535
g41
asS'land  area divided ='
p7536
(lp7537
g25
asS'improve training'
p7538
(lp7539
g38
asS'communist party mikhail gorbachev'
p7540
(lp7541
g4
asS'free weka software'
p7542
(lp7543
g30
asS'gonzalez'
p7544
(lp7545
g4
asS'reckon hoss williams hears'
p7546
(lp7547
g11
asS'tuple representations'
p7548
(lp7549
g14
asS'beauty unadorned save'
p7550
(lp7551
g11
asS'major components'
p7552
(lp7553
g41
asS'main reef/main reef leader'
p7554
(lp7555
g38
asS'60 day notice period'
p7556
(lp7557
g41
asS'leading methodology'
p7558
(lp7559
g30
asS'equipment including outdated equipment'
p7560
(lp7561
g11
asS'computing effectiveness\nmeasures'
p7562
(lp7563
g14
asS'light =\nconsumer goods'
p7564
(lp7565
g25
asS'merchantability'
p7566
(lp7567
g7
ag8
asS'computer software code'
p7568
(lp7569
g41
asS'fully exploited'
p7570
(lp7571
g25
asS'alfonsin'
p7572
(lp7573
g4
asS'direct contraventions'
p7574
(lp7575
g38
asS'united nations conference'
p7576
(lp7577
g4
asS'finance minister barend du plessis'
p7578
(lp7579
g4
asS'standard methods'
p7580
(lp7581
g14
asS'explore temporal issues'
p7582
(lp7583
g14
asS'larger work'
p7584
(lp7585
g41
asS'document dj'
p7586
(lp7587
g14
asS'finnbogadottir'
p7588
(lp7589
g4
asS'pdf\nprintable version'
p7590
(lp7591
g30
ag38
asS'gather data'
p7592
(lp7593
g30
asS'rule'
p7594
(lp7595
g30
asS'heard island'
p7596
(lp7597
g25
asS'shallow limpid water'
p7598
(lp7599
g11
asS'junction sixty feet overhead'
p7600
(lp7601
g11
asS'finance minister miguel riberio cadilhe'
p7602
(lp7603
g4
asS'}\n\n@inproceedings{lewis91c'
p7604
(lp7605
g14
asS'raw materials'
p7606
(lp7607
g25
asS'originally received'
p7608
(lp7609
g41
asS'gnu library general public license'
p7610
(lp7611
g41
asS'human knowledge\nengineering based'
p7612
(lp7613
g14
asS'indirectly'
p7614
(lp7615
g41
asS'national union'
p7616
(lp7617
g38
as.