(dp1
S'finance minister peter walsh'
p2
(lp3
S'C:\\bharat\\Work\\OneDrive - NCSU\\github\\tag_based_file_manager\\sample\\cat-descriptions_120396.txt'
p4
asS'limited'
p5
(lp6
S'C:\\bharat\\Work\\OneDrive - NCSU\\github\\tag_based_file_manager\\sample\\eclipse_license.txt'
p7
aS'C:\\bharat\\Work\\OneDrive - NCSU\\github\\tag_based_file_manager\\sample\\junit_license.txt'
p8
asS'maintaining tax exempt status'
p9
(lp10
S'C:\\bharat\\Work\\OneDrive - NCSU\\github\\tag_based_file_manager\\sample\\adventures_tom_sawyer.txt'
p11
asS'language studies'
p12
(lp13
S'C:\\bharat\\Work\\OneDrive - NCSU\\github\\tag_based_file_manager\\sample\\README.txt'
p14
asS'forestry frans andriessen'
p15
(lp16
g4
asS'natural resources\n         minister  mohammad yasin khan wattoo'
p17
(lp18
g4
asS'}\n\n@article{lewis94d'
p19
(lp20
g14
asS'prime minister lubomir strougal'
p21
(lp22
g4
asS'palm =\nkernels'
p23
(lp24
S'C:\\bharat\\Work\\OneDrive - NCSU\\github\\tag_based_file_manager\\sample\\feldman-cia-worldfactbook-data.txt'
p25
asS'tourist industry'
p26
(lp27
g25
asS'lexisnexis academic\njump'
p28
(lp29
S'C:\\bharat\\Work\\OneDrive - NCSU\\github\\tag_based_file_manager\\sample\\data_mining.txt'
p30
asS'abdel-hadi-kandeel\nalfonsin\nalhaji-abdul-ahmed\nalptemocin\namato\nandersen\nandriessen\naqazadeh\naquino\narafat\nbabangida\nballadur\nbangemann\nbarreto\nberge\nbeteta\nblix\nboesky\nbond\nbotha\nbouey\nbraks\nbresser-pereira\nbrodersohn\nbrundtland\ncamdessus\ncarlsson\ncaro\ncastelo-branco\ncastro\ncavaco-silva\nchaves\nchen-muhua\nchiang-ching-kuo\nchien\nchirac\nciampi\ncolombo\nconable\nconcepcion\ncorrigan\ncossiga\ncrow\ndadzie\ndauster\nde-clercq\nde-kock\nde-korte\nde-la-madrid\nde-larosiere\ndel-mazo\ndelamuraz\ndelors\ndementsev\ndeng-xiaoping\ndennis\ndhillon\ndominguez\ndouglas\ndu-plessis\nduisenberg\ndunkel\nedelman\nenggaard\neser\nevren\neyskens\nfeldt\nfernandez\nferrari\nfinnbogadottir\nfriedman\nfujioka\ngaddafi\ngandhi\ngarcia\ngava\ngodeaux\ngonzalez\ngorbachev\ngoria\ngostyev\ngraf\ngreenspan\ngromyko\ngrosz\nguillaume\nhalikias\nhamad-saud-al-sayyari\nhannibalsson\nhaughey\nhawke\nhe-kang\nherrington\nhillery\nhisham-nazer\nhoefner\nhoffmeyer\nholberg\nholkeri\nhonecker\nhovmand\nhoward-baker\nhusak\nicahn\njames-baker\njames-miller\njaruzelski\njayme\njohnston\nkaminsky\nkaufman\nkeating\nkhameini\nkhomeini\nkiechle\nking-fahd\nkohl\nkoivisto\nkondo\nkoren\nkullberg\nlacina\nlange\nlanguetin\nlawson\nlee-ta-hai\nlee-teng-hui\nleenanon\nleigh-pemberton\nleitz\nli-peng\nli-xiannian\nliikanen\nlubbers\nlukman\nlyng\nmachinea\nmacsharry\nmalhotra\nmancera-aguayo\nmartens\nmartin\nmasse\nmaxwell\nmaystadt\nmedgyessy\nmessner\nmikulic\nmilliet\nmitterrand\nmiyazawa\nmohammad-ibrahim-jaffrey-baluch\nmohammad-khan-junejo\nmohammad-yasin-khan-wattoo\nmohammed-ahmed-al-razaz\nmohammed-ali-abal-khail\nmohammed-salaheddin-hamid\nmorales-bermudez\nmousavi\nmoyle\nmubarak\nmulroney\nmurdoch\nmustapha\nnakao\nnakasone\nnasko\nnemeth\nnobrega\no-cofaigh\no-kennedy\noeien\nokongwu\nongpin\nortega\nozal\npalsson\npandolfi\npapandreou\nparkinson\npaye\nperez-de-cuellar\npetricioli\npickens\npoehl\npottakis\nprawiro\nqassemi\nrafnar\nrafsanjani\nreagan\nrezende\nriberio-cadilhe\nrich\nrikanovic\nrojas\nromero\nroumeliotis\nrowland\nrubio\nruder\nruding\nrussell\nryzhkov\nsaberbein\nsalinas\nsamojlik\nsanter\nsaracoglu\nsarney\nsartzetakis\nsathe\nschlueter\nsedki\nsimitis\nsimonsen\nsinghasaneh\nsiregar\nskaanland\nsoares\nsolchaga\nsourrouille\nsprinkel\nsteeg\nstich\nstoltenberg\nstoph\nstrougal\nsubroto\nsuharto\nsumita\nsuominen\ntakeshita\ntamura\ntavares-moreia\nthatcher\ntimar\ntinsulanonda\ntiwari\ntoernaes\ntoman\ntsovolas\nvancsa\nvenkataraman\nvera-la-rosa\nverity\nvillanyi\nvlatkovic\nvolcker\nvon-weizsaecker\nvranitzky\nwaldheim\nwali\nwalsh\nwang-bingqian\nwardhana\nwasim-aun-jaffrey\nwilson\nwise\nyeutter\nyoung\nyu-kuo-hua\nzak\nzhao-ziyang\nzheng-tuobin\nzia-ul-haq'
p31
(lp32
S'C:\\bharat\\Work\\OneDrive - NCSU\\github\\tag_based_file_manager\\sample\\all-people-strings.lc.txt'
p33
asS'palm oil =\nprocessing'
p34
(lp35
g25
asS'uranium\n1'
p36
(lp37
S'C:\\bharat\\Work\\OneDrive - NCSU\\github\\tag_based_file_manager\\sample\\mining_south_africa.txt'
p38
asS'initial developer grant'
p39
(lp40
S'C:\\bharat\\Work\\OneDrive - NCSU\\github\\tag_based_file_manager\\sample\\jaxb_license.txt'
p41
asS'knowledge-based systems'
p42
(lp43
g14
asS'published-testset indicating'
p44
(lp45
g14
asS'west asia'
p46
(lp47
g4
asS'lewis split'
p48
(lp49
g14
asS'pleasant rearward apartment'
p50
(lp51
g11
asS'ship repair'
p52
(lp53
g25
asS'effect making'
p54
(lp55
g41
asS'mediation'
p56
(lp57
g38
asS'previous research'
p58
(lp59
g14
asS'@end[itemize]\n\nfinland\n@begin[itemize]\n   president mauno koivisto'
p60
(lp61
g4
asS'data errors'
p62
(lp63
g30
asS'heavy thunder constantly\nvibrated'
p64
(lp65
g11
asS'earlier study'
p66
(lp67
g14
asS'governor gerhard de kock'
p68
(lp69
g4
asS'mere fanciful forms'
p70
(lp71
g11
asS'raw analysis step'
p72
(lp73
g30
asS'roles [lewis94d]'
p74
(lp75
g14
asS'96 conference'
p76
(lp77
g14
asS'uranium production'
p78
(lp79
g38
asS'sufficient rights'
p80
(lp81
g41
asS'/ 20+ occurrences  \n************  **********   ********************   ******************** \nexchanges        39                32                       7\norgs             56                32                       9\npeople          267               114                      15\nplaces          175               147                      60\ntopics          135               120                      57'
p82
(lp83
g14
asS'@*\ntoronto stock exchange'
p84
(lp85
g4
asS'distribution medium'
p86
(lp87
g41
asS'orgs categories'
p88
(lp89
g14
asS'insignificant\nwhitewashed streak'
p90
(lp91
g11
asS'nose\npointing heavenward'
p92
(lp93
g11
asS'project gutenberg-tm\nelectronic work'
p94
(lp95
g11
asS'including revisions'
p96
(lp97
g7
ag8
asS'energy minister svend erik hovmand'
p98
(lp99
g4
asS'conditions tolerable'
p100
(lp101
g38
asS'powerful\n\xc2\x91fraid ole missis--\xc2\x94\n\n\xc2\x93'
p102
(lp103
g11
asS'venue'
p104
(lp105
g41
asS'data sets'
p106
(lp107
g30
ag14
asS'data miningformal sciences\nnavigation menu'
p108
(lp109
g30
asS'topics attribute'
p110
(lp111
g14
asS'financial services'
p112
(lp113
g25
asS'ship repairing'
p114
(lp115
g25
asS'nascio research'
p116
(lp117
g30
asS'york mercantile exchange'
p118
(lp119
g4
asS'short notice'
p120
(lp121
g41
asS'food minister bruno leitz'
p122
(lp123
g4
asS'mining investment shows recovery'
p124
(lp125
g38
asS'consistent'
p126
(lp127
g41
asS'open neural networks library'
p128
(lp129
g30
asS'coils\n\npeter\n\naunt polly seeks information'
p130
(lp131
g11
asS'mining industry'
p132
(lp133
g38
asS'infringes'
p134
(lp135
g7
ag8
asS'site northeast'
p136
(lp137
g38
asS'trade minister jose hugo castelo branco'
p138
(lp139
g4
asS'hook\nbenny taylor\xc2\x92'
p140
(lp141
g11
asS'open access publishers'
p142
(lp143
g30
asS'reuters newswire stories'
p144
(lp145
g14
asS'\xc2\x93_i love you_'
p146
(lp147
g11
asS'reuters-21578 distribution'
p148
(lp149
g14
asS'history\n1'
p150
(lp151
g38
asS'rights granted directly'
p152
(lp153
g41
asS'steel =\nindustry'
p154
(lp155
g25
asS'money supply'
p156
(lp157
g4
asS'governor spencer russell'
p158
(lp159
g4
asS'version 2'
p160
(lp161
g41
asS'gas =\nproduction'
p162
(lp163
g25
asS'dominant =\nsector'
p164
(lp165
g25
asS'month = feb'
p166
(lp167
g14
asS'mineral wealth minister abdel-hadi kandeel'
p168
(lp169
g4
asS'general data set'
p170
(lp171
g30
asS'begin work'
p172
(lp173
g38
asS'intellij idea installation home'
p174
(lp175
g8
asS'british indian ocean territory'
p176
(lp177
g25
asS'small-scale =\nenterprises'
p178
(lp179
g25
asS'nonassociated =\nnatural gas'
p180
(lp181
g25
asS'decide planned'
p182
(lp183
g38
asS'finance minister peter medgyessy'
p184
(lp185
g4
asS'statistical classification techniques'
p186
(lp187
g14
asS'basic metal =\nproducts'
p188
(lp189
g25
asS'protection'
p190
(lp191
g41
asS'china'
p192
(lp193
g4
asS'ferro-silicon production'
p194
(lp195
g25
asS'^ karl rexer'
p196
(lp197
g30
asS'expressly granted'
p198
(lp199
g7
ag8
asS'widow douglas\xc2\x92\ngrounds'
p200
(lp201
g11
asS'isbn 0-321-32136-7\ntheodoridis'
p202
(lp203
g30
asS'[16]\ndiamonds[edit]'
p204
(lp205
g38
asS'hp vertica analytics platform'
p206
(lp207
g30
asS'prime minister atef sedki'
p208
(lp209
g4
asS'property'
p210
(lp211
g41
asS'gold rush caused thousands'
p212
(lp213
g38
asS'suspected deposits'
p214
(lp215
g25
asS'huge producer'
p216
(lp217
g38
asS'netherlands guilder/florin'
p218
(lp219
g4
asS'genetic programming variant'
p220
(lp221
g30
asS'alleged intellectual property infringement'
p222
(lp223
g7
ag8
asS'information science department'
p224
(lp225
g14
asS'health insurance portability'
p226
(lp227
g30
asS'star pupils inquiring'
p228
(lp229
g11
asS'technology predominate'
p230
(lp231
g25
asS'clean territory stopped\nshort'
p232
(lp233
g11
asS'web mining'
p234
(lp235
g30
asS'dominican republic'
p236
(lp237
g25
asS'sas enterprise miner'
p238
(lp239
g30
asS'60 days notice'
p240
(lp241
g41
asS'performing proper statistical hypothesis testing'
p242
(lp243
g30
asS'secure'
p244
(lp245
g7
ag8
asS'extract previously unknown'
p246
(lp247
g30
asS'named\nentity'
p248
(lp249
g14
asS'reagan'
p250
(lp251
g4
asS'million metric tons'
p252
(lp253
g25
asS'=\nadministers western sahara'
p254
(lp255
g25
asS'sgml dtd file describing'
p256
(lp257
g14
asS'modified work'
p258
(lp259
g41
asS'small blue tickets'
p260
(lp261
g11
asS'principal crops =\ncorn'
p262
(lp263
g25
asS'additional information'
p264
(lp265
g14
asS'txt'
p266
(lp267
S'adventures_tom_sawyer.txt'
p268
aS'C:\\bharat\\Work\\OneDrive - NCSU\\github\\tag_based_file_manager\\adventures_tom_sawyer.txt'
p269
aS'sample\\adventures_tom_sawyer.txt'
p270
ag11
aS'sample\\all-exchanges-strings.lc.txt'
p271
aS'C:\\bharat\\Work\\OneDrive - NCSU\\github\\tag_based_file_manager\\sample\\all-exchanges-strings.lc.txt'
p272
aS'sample\\all-orgs-strings.lc.txt'
p273
aS'C:\\bharat\\Work\\OneDrive - NCSU\\github\\tag_based_file_manager\\sample\\all-orgs-strings.lc.txt'
p274
aS'sample\\all-people-strings.lc.txt'
p275
ag33
aS'sample\\all-places-strings.lc.txt'
p276
aS'C:\\bharat\\Work\\OneDrive - NCSU\\github\\tag_based_file_manager\\sample\\all-places-strings.lc.txt'
p277
aS'sample\\all-topics-strings.lc.txt'
p278
aS'C:\\bharat\\Work\\OneDrive - NCSU\\github\\tag_based_file_manager\\sample\\all-topics-strings.lc.txt'
p279
aS'sample\\cat-descriptions_120396.txt'
p280
ag4
aS'sample\\data_mining.txt'
p281
ag30
aS'sample\\eclipse_license.txt'
p282
ag7
aS'sample\\feldman-cia-worldfactbook-data.txt'
p283
ag25
aS'sample\\jaxb_license.txt'
p284
ag41
aS'sample\\junit_license.txt'
p285
ag8
aS'sample\\mining_south_africa.txt'
p286
ag38
aS'sample\\README.txt'
p287
ag14
asS'association rule learning'
p288
(lp289
g30
asS'moot point'
p290
(lp291
g38
asS'text mining handbook'
p292
(lp293
g30
asS'java language'
p294
(lp295
g30
asS'south african mining sector'
p296
(lp297
g38
asS'cotton textile =\nmills'
p298
(lp299
g25
asS'thy caitiff carcase'
p300
(lp301
g11
asS'frequently criticized'
p302
(lp303
g38
asS'applications[edit]'
p304
(lp305
g30
asS'distributing'
p306
(lp307
g7
ag8
asS'licenses terminated'
p308
(lp309
g41
asS'machinery'
p310
(lp311
g38
asS'african =\ncountries'
p312
(lp313
g25
asS'offshore  financial =\ncenter'
p314
(lp315
g25
asS'survive'
p316
(lp317
g7
ag41
ag8
asS'ibm spss modeler'
p318
(lp319
g30
asS'[21]\ncomputer science conferences'
p320
(lp321
g30
asS'agriculture minister major-general mohammed gado nasko'
p322
(lp323
g4
asS'belgian franc'
p324
(lp325
g4
asS'=\ntristan da cunha'
p326
(lp327
g25
asS'energy minister aureliano chaves'
p328
(lp329
g4
asS'aware'
p330
(lp331
g7
ag8
asS'software generally'
p332
(lp333
g41
asS'uranium mining began'
p334
(lp335
g25
asS'ofc'
p336
(lp337
S'sample\\dir1\\hello.ofc'
p338
aS'C:\\bharat\\Work\\OneDrive - NCSU\\github\\tag_based_file_manager\\sample\\dir1\\hello.ofc'
p339
asS'trademark notices contained'
p340
(lp341
g41
asS'business day'
p342
(lp343
g38
asS'marketplace surveys[edit]'
p344
(lp345
g30
asS'automated learning'
p346
(lp347
g14
asS'east european countries'
p348
(lp349
g25
asS'natural gas =\nproduction'
p350
(lp351
g25
asS'expressly stated'
p352
(lp353
g7
ag8
asS'**currency codes'
p354
(lp355
g4
asS'chancellor franz vranitzky'
p356
(lp357
g4
asS'safe harbor principles'
p358
(lp359
g30
asS'previous modification'
p360
(lp361
g41
asS'frantic sufferer sheered'
p362
(lp363
g11
asS'gold discoveries played'
p364
(lp365
g38
asS'rights'
p366
(lp367
g7
ag41
ag8
asS'work'
p368
(lp369
g41
ag38
asS'light industrial products'
p370
(lp371
g25
asS'program errors'
p372
(lp373
g7
ag8
asS'treaty entered into--early lessons--'
p374
(lp375
g11
asS'@*\nmanila stock exchange'
p376
(lp377
g4
asS'central bank'
p378
(lp379
g4
asS'fertile =\nsoil'
p380
(lp381
g25
asS'machine learning algorithms'
p382
(lp383
g30
asS'economic affairs'
p384
(lp385
g4
asS'author\n   gnomovision'
p386
(lp387
g41
asS'cloth=\ning'
p388
(lp389
g25
asS'@*\neuropean free trade association'
p390
(lp391
g4
asS'uranium ore mine'
p392
(lp393
g38
asS'steel community'
p394
(lp395
g4
asS'cape town'
p396
(lp397
g38
asS'privacy policyabout wikipediadisclaimerscontact wikipediadeveloperscookie statementmobile viewwikimedia foundation powered'
p398
(lp399
g30
ag38
asS'license steward'
p400
(lp401
g41
asS'light =\nmanubgfacturing'
p402
(lp403
g25
asS'licensed patents'
p404
(lp405
g7
ag8
asS'data mining & knowledge discovery process model'
p406
(lp407
g30
asS'000 workers'
p408
(lp409
g38
asS'times'
p410
(lp411
g38
asS'united arab =\nemirates'
p412
(lp413
g25
asS'money/foreign exchange'
p414
(lp415
g4
asS'topics categories *'
p416
(lp417
g14
asS'ieee transactions'
p418
(lp419
g30
asS'end'
p420
(lp421
g41
asS'recovery'
p422
(lp423
g38
asS'employees expend considerable\neffort'
p424
(lp425
g11
asS'cool dim gray'
p426
(lp427
g11
asS'provide'
p428
(lp429
g41
asS'paul volcker'
p430
(lp431
g4
asS'damage'
p432
(lp433
g7
ag8
asS'\xc2\x92ll\nplay robin hood--'
p434
(lp435
g11
asS'end user licenses'
p436
(lp437
g41
asS'aunt polly blushed crimson'
p438
(lp439
g11
asS'south african mining'
p440
(lp441
g38
asS'vredefort dome impact'
p442
(lp443
g38
asS'electric =\nmotors'
p444
(lp445
g25
asS'mysterious material'
p446
(lp447
g14
asS'national economy minister sheikh mohammed ali abal-khail'
p448
(lp449
g4
asS'ten red\ntickets equalled'
p450
(lp451
g11
asS'net agricultural importer'
p452
(lp453
g25
asS'@*\nchicago board'
p454
(lp455
g4
asS'domain-specific techniques'
p456
(lp457
g14
asS'computer technology'
p458
(lp459
g30
asS'cikm conference \xe2\x80\x93 acm conference'
p460
(lp461
g30
asS'fifty percent'
p462
(lp463
g41
asS'witwatersrand gold rush'
p464
(lp465
g38
asS'post-apartheid era'
p466
(lp467
g38
asS'non-exclusive license'
p468
(lp469
g41
asS'availability & questions'
p470
(lp471
g14
asS'president'
p472
(lp473
g4
asS'law'
p474
(lp475
g41
asS'^ aol search data identified individuals'
p476
(lp477
g30
asS'east rand mine'
p478
(lp479
g38
asS'governor jacques de larosiere'
p480
(lp481
g4
asS'civil society groups'
p482
(lp483
g30
asS'jeff thatcher lived'
p484
(lp485
g11
asS'petroleum/oil minister hisham nazer'
p486
(lp487
g4
asS'uranium produced'
p488
(lp489
g38
asS'@*\ninternational whaling commission'
p490
(lp491
g4
asS'waverer quickly \xc2\x93explained'
p492
(lp493
g11
asS'top nations'
p494
(lp495
g25
asS'royalty-free copyright license'
p496
(lp497
g7
ag8
asS'a-priori hypothesis'
p498
(lp499
g30
asS'algorithms'
p500
(lp501
g30
asS'natural language processing systems'
p502
(lp503
g14
asS'[edit]\nmethods\nagent mining\nanomaly/outlier/change detection\nassociation rule learning\nbayesian networks\nclassification\ncluster analysis\ndecision trees\nensemble learning\nfactor analysis\ngenetic algorithms\nintention mining\nlearning classifier system\nmultilinear subspace learning\nneural networks\nregression analysis\nsequence mining\nstructured data analysis\nsupport vector machines\ntext mining\ntime series analysis\napplication domains\nanalytics\nbehavior informatics\nbig data\nbioinformatics\nbusiness intelligence\ndata analysis\ndata warehouse\ndecision support system\ndomain driven data mining\ndrug discovery\nexploratory data analysis\npredictive analytics\nweb mining\napplication examples\nmain article'
p504
(lp505
g30
asS'legal permission'
p506
(lp507
g41
asS'order'
p508
(lp509
g7
ag8
asS'patch-eyed spanish\ndevil'
p510
(lp511
g11
asS'program originate'
p512
(lp513
g7
ag8
asS'classification problems based'
p514
(lp515
g30
asS'receives'
p516
(lp517
g7
ag8
asS'morgan kaufmann\nwitten'
p518
(lp519
g30
asS'intellectual property'
p520
(lp521
g7
ag8
asS'cardiff hill episode sank'
p522
(lp523
g11
asS'refined sugar'
p524
(lp525
g25
asS'annual fish  =\ncatch averages'
p526
(lp527
g25
asS']\n@begin[format]\nafghanistan@*\nalbania @*\nalgeria @*\namerican-samoa@*\nandorra @*\nangola  @*\nanguilla@*\nantigua @*\nargentina  @*\naruba@*\naustralia  @*\naustria @*\nbahamas @*\nbahrain @*\nbangladesh @*\nbarbados@*\nbelgium @*\nbelize  @*\nbenin@*\nbermuda @*\nbhutan  @*\nbolivia @*\nbotswana@*\nbrazil  @*\nbritish-virgin-islands@*\nbrunei  @*\nbulgaria@*\nburkina-faso@*\nburma@*\nburundi @*\ncameroon@*\ncanada  @*\ncape-verde @*\ncayman-islands@*\ncentral-african-republic@*\nchad @*\nchile@*\nchina@*\ncolombia@*\ncongo@*\ncosta-rica @*\ncuba @*\ncyprus  @*\nczechoslovakia@*\ndenmark@*\ndjibouti@*\ndominica@*\ndominican-republic@*\neast-germany@*\necuador @*\negypt@*\nel-salvador@*\nequatorial-guinea@*\nethiopia@*\nfiji @*\nfinland @*\nfrance  @*\nfrench-guiana@*\ngabon@*\ngambia  @*\nghana@*\ngibraltar  @*\ngreece  @*\ngrenada @*\nguadeloupe @*\nguam @*\nguatemala  @*\nguinea-bissau@*\nguinea  @*\nguyana  @*\nhaiti@*\nhonduras@*\nhong-kong  @*\nhungary @*\niceland @*\nindia@*\nindonesia  @*\niran @*\niraq @*\nireland @*\nisrael  @*\nitaly@*\nivory-coast@*\njamaica @*\njapan@*\njordan  @*\nkampuchea  @*\nkenya@*\nkuwait  @*\nlaos @*\nlebanon @*\nlesotho @*\nliberia @*\nlibya@*\nliechtenstein@*\nluxembourg @*\nmacao@*\nmadagascar @*\nmalawi  @*\nmalaysia@*\nmali @*\nmalta@*\nmartinique @*\nmauritania @*\nmauritius  @*\nmexico  @*\nmonaco  @*\nmorocco @*\nmozambique @*\nnamibia @*\nnepal@*\nnetherlands@*\nnetherlands-antilles@*\nnew-caledonia@*\nnew-zealand@*\nnicaragua  @*\nniger@*\nnigeria @*\nnorth-korea@*\nnorway  @*\noman @*\npakistan@*\npanama  @*\npapua-new-guinea@*\nparaguay@*\nperu @*\nphilippines@*\npoland  @*\nportugal@*\nqatar@*\nromania @*\nrwanda  @*\nsaudi-arabia@*\nsenegal @*\nseychelles @*\nsierra-leone@*\nsingapore  @*\nsomalia @*\nsouth-africa@*\nsouth-korea@*\nspain@*\nsri-lanka  @*\nsudan@*\nsuriname@*\nswaziland  @*\nsweden  @*\nswitzerland@*\nsyria@*\ntaiwan  @*\ntanzania@*\nthailand@*\ntogo @*\ntonga@*\ntrinidad-tobago@*\ntunisia @*\nturkey  @*\nuae  @*\nuganda  @*\nuk@*\nuruguay @*\nusa@*\nussr@*\nus-virgin-islands@*\nvanuatu @*\nvatican @*\nvenezuela  @*\nvietnam @*\nwest-germany@*\nwestern-samoa@*\nyemen-arab-republic@*\nyemen-demo-republic@*\nyugoslavia @*\nzaire@*\nzambia  @*\nzimbabwe@*\n@end[format]\n@blankspace[3 lines]\n________________________________________________________________\n@heading[people codes'
p528
(lp529
g4
asS'sole purpose'
p530
(lp531
g41
asS'affect'
p532
(lp533
g7
ag8
asS'japan'
p534
(lp535
g4
asS'research paper submissions'
p536
(lp537
g30
asS'takeshita'
p538
(lp539
g4
asS'process[edit]'
p540
(lp541
g30
asS'lonmin strike'
p542
(lp543
g38
asS'data mining & aggregation'
p544
(lp545
g30
asS'[32] refrigeration'
p546
(lp547
g38
asS'data mining software packages'
p548
(lp549
g30
asS'version number'
p550
(lp551
g41
asS'produces fruit'
p552
(lp553
g25
asS'writing'
p554
(lp555
g7
ag8
asS'production'
p556
(lp557
g38
asS'longest strike'
p558
(lp559
g38
asS'agriculture minister colin moyle'
p560
(lp561
g4
asS'build=\ning materials'
p562
(lp563
g25
asS'damages'
p564
(lp565
g7
ag41
ag8
asS'plantations produce crops'
p566
(lp567
g25
asS'combination'
p568
(lp569
g7
ag8
asS'largest gold mine located'
p570
(lp571
g38
asS'similar'
p572
(lp573
g38
asS'offers warranties related'
p574
(lp575
g7
ag8
asS'afraid\n\nlate home\n\njim\n\n\xc2\x91tendin\xc2\x92'
p576
(lp577
g11
asS'netherlands\n@begin[itemize]\n   prime minister ruud lubbers'
p578
(lp579
g4
asS'data preparation'
p580
(lp581
g30
asS'@end[itemize]\n\nbrazil\n@begin[itemize]\n   president jose sarney'
p582
(lp583
g4
asS'delimit\ndocuments'
p584
(lp585
g14
asS'data mining curriculum'
p586
(lp587
g30
asS'including forestry'
p588
(lp589
g25
asS'platinum industry workers'
p590
(lp591
g38
asS'sid made mental\nnote'
p592
(lp593
g11
asS'warranty constitutes'
p594
(lp595
g41
asS'sauce open-air sleeping'
p596
(lp597
g11
asS'carry prominent notices stating'
p598
(lp599
g41
asS'training set splits'
p600
(lp601
g14
asS'@*\ncopenhagen stock exchange/bourse'
p602
(lp603
g4
asS'isbn 978-1-59904-162-9\ntan'
p604
(lp605
g30
asS'ventilation door frame'
p606
(lp607
g38
asS'project gutenberg-tm mission'
p608
(lp609
g11
asS'sigkdd explorations'
p610
(lp611
g30
asS'wide =\nvariety'
p612
(lp613
g25
asS'unmodified basis'
p614
(lp615
g41
asS'reasonable'
p616
(lp617
g41
asS'fitness'
p618
(lp619
g7
ag8
asS'animal husbandry predominates'
p620
(lp621
g25
asS'tags appears'
p622
(lp623
g14
asS'program subject'
p624
(lp625
g41
asS'isbn 0-620-05012-8'
p626
(lp627
g38
asS'noncompliance'
p628
(lp629
g7
ag8
asS'interruption'
p630
(lp631
g7
ag8
asS'david dolan lewis'
p632
(lp633
g14
asS'modlewis split'
p634
(lp635
g14
asS'statistical distribution'
p636
(lp637
g14
asS'frantic half-clad\npeople'
p638
(lp639
g11
asS'@*\ninternational natural rubber organisation'
p640
(lp641
g4
asS'spiral welded steel =\npipe'
p642
(lp643
g25
asS'distribution obligations'
p644
(lp645
g41
asS'industrial raw =\nmaterials'
p646
(lp647
g25
asS'tom sawyer stepped forward'
p648
(lp649
g11
asS'central african republic'
p650
(lp651
g25
asS'@*\ninternational bank'
p652
(lp653
g4
asS'2007 strike[edit]'
p654
(lp655
g38
asS'waldheim'
p656
(lp657
g4
asS'0\n                       readme file'
p658
(lp659
g14
asS'logged intalkcontributionscreate accountlog inarticletalkreadeditview historysearch\n\nsearch wikipedia'
p660
(lp661
g30
ag38
asS'spelling bee competition'
p662
(lp663
g30
asS'subsequent analysis strongly'
p664
(lp665
g14
asS'energy minister vasant sathe'
p666
(lp667
g4
asS'ten\nblue tickets equalled'
p668
(lp669
g11
asS'total depth'
p670
(lp671
g38
asS'written'
p672
(lp673
g41
asS'safe assumption'
p674
(lp675
g14
asS'explicit geographical distribution limitation excluding'
p676
(lp677
g41
asS'free'
p678
(lp679
g41
asS'offshore financial =\nservices'
p680
(lp681
g25
asS'chronological order'
p682
(lp683
g14
asS'poor safety record'
p684
(lp685
g38
asS'finished steel =\nproducts'
p686
(lp687
g25
asS'south african mining industry employs 493'
p688
(lp689
g38
asS'vengeance satisfied\n\nchapter xxii'
p690
(lp691
g11
asS'paracel islands'
p692
(lp693
g25
asS']\n@begin[format]\namerican stock exchange'
p694
(lp695
g4
asS'object code form'
p696
(lp697
g7
ag8
asS'kevin crowley'
p698
(lp699
g38
asS'federal reserve board'
p700
(lp701
g4
asS'finance minister dimitris tsovolas'
p702
(lp703
g4
asS'@*\ntokyo stock exchange'
p704
(lp705
g4
asS'garment production'
p706
(lp707
g25
asS'7'
(lp708
g7
ag8
asS'</unknown> [variable]'
p709
(lp710
g14
asS'text categorization\nissues'
p711
(lp712
g14
asS'sugar =\ncane'
p713
(lp714
g25
asS'previous modifications'
p715
(lp716
g41
asS'allowing comparability'
p717
(lp718
g14
asS'defend claims'
p719
(lp720
g7
ag8
asS'purpose'
p721
(lp722
g7
ag8
asS'prime minister thorsteinn palsson'
p723
(lp724
g4
asS'content mining'
p725
(lp726
g30
asS'@*\nmilan stock exchange/bourse'
p727
(lp728
g4
asS'\xc2\x91lowed _she\xc2\x92d_ \xc2\x91tend'
p729
(lp730
g11
asS'presumedly result'
p731
(lp732
g14
asS'current record'
p733
(lp734
g38
asS'longwall coal mines due'
p735
(lp736
g38
asS'rand rebellion[edit]'
p737
(lp738
g38
asS'peggy andersen'
p739
(lp740
g14
asS'consumer durables'
p741
(lp742
g25
asS'system'
p743
(lp744
g41
asS'internal revenue\nservice'
p745
(lp746
g11
asS'text categorization research'
p747
(lp748
g14
asS'deeper mines refrigeration'
p749
(lp750
g38
asS'descriptive text giving attribution'
p751
(lp752
g41
asS'676 unused\ndocuments'
p753
(lp754
g14
asS'expectoration marvellously\nincreased'
p755
(lp756
g11
asS'lawsuits'
p757
(lp758
g7
ag8
asS'motor vehicle assembly'
p759
(lp760
g25
asS'machine readable form accessible'
p761
(lp762
g11
asS'information science'
p763
(lp764
g30
asS'bank=\ning'
p765
(lp766
g25
asS'executable form'
p767
(lp768
g41
asS'largest producer[5]'
p769
(lp770
g38
asS'contact page\ntools'
p771
(lp772
g30
ag38
asS'united nations convention'
p773
(lp774
g41
asS'total fatalities'
p775
(lp776
g38
asS'principal citrus  =\nfruits'
p777
(lp778
g25
asS'basic subsistence =\nbreadfruit'
p779
(lp780
g25
asS'effectively convey'
p781
(lp782
g41
asS'rock mined'
p783
(lp784
g38
asS'association rule mining'
p785
(lp786
g30
asS'data mining step'
p787
(lp788
g30
asS'feature\ntakes'
p789
(lp790
g14
asS'serve'
p791
(lp792
g7
ag8
asS'start tag'
p793
(lp794
g14
asS'central bank president pierre languetin'
p795
(lp796
g4
asS'hipaa requires individuals'
p797
(lp798
g30
asS'document assigned'
p799
(lp800
g14
asS'prayer\n\nmuff potter outwitted'
p801
(lp802
g11
asS'glimmering lights showed'
p803
(lp804
g11
asS'task'
p805
(lp806
g14
asS'general public license'
p807
(lp808
g41
asS'million metric =\ntons'
p809
(lp810
g25
asS'distributional information'
p811
(lp812
g14
asS'gpl version 2'
p813
(lp814
g41
asS'data collection'
p815
(lp816
g30
asS'finance minister ernst hoefner'
p817
(lp818
g4
asS'million times bullier'
p819
(lp820
g11
asS'controlled vocabulary fields'
p821
(lp822
g14
asS'large net importer'
p823
(lp824
g25
asS'machine learning community'
p825
(lp826
g30
asS'programs'
p827
(lp828
g7
ag41
ag8
asS'rate'
p829
(lp830
g38
asS'svg machine learning portal'
p831
(lp832
g30
asS'modifications created'
p833
(lp834
g41
asS'general agreement'
p835
(lp836
g4
asS'include additions'
p837
(lp838
g7
ag8
asS'avoiding conflating\ndifferences'
p839
(lp840
g14
asS'@end[itemize]\n\n\n\n\nportugal\n@begin[itemize]\n   president mario soares'
p841
(lp842
g4
asS'raw =\nmaterials'
p843
(lp844
g25
asS'startup conference'
p845
(lp846
g30
asS'good friendly\nfaces--good friendly faces'
p847
(lp848
g11
asS'business intelligence'
p849
(lp850
g30
asS'designated place'
p851
(lp852
g41
asS'manner'
p853
(lp854
g7
ag8
asS'santa clara county'
p855
(lp856
g41
asS'special exception'
p857
(lp858
g41
asS'commercial computer software documentation'
p859
(lp860
g41
asS'market basket analysis'
p861
(lp862
g30
asS'san mateo'
p863
(lp864
g14
asS'contents'
p865
(lp866
g41
asS'principal  crops'
p867
(lp868
g25
asS'[2] large scale'
p869
(lp870
g38
asS'open source deep learning library'
p871
(lp872
g30
asS'larger data populations'
p873
(lp874
g30
asS'johnny miller tackle'
p875
(lp876
g11
asS'considered negative examples'
p877
(lp878
g14
asS'central bank president fernando milliet'
p879
(lp880
g4
asS'typographical errors'
p881
(lp882
g14
asS'hipaa privacy rule impedes biomedical research'
p883
(lp884
g30
asS'practical machine learning tools'
p885
(lp886
g30
asS'natural language processing'
p887
(lp888
g30
asS'liquefied natural =\ngas'
p889
(lp890
g25
asS'2012\njump'
p891
(lp892
g38
asS'recommended\ntraining sets'
p893
(lp894
g14
asS'gaddafi'
p895
(lp896
g4
asS'process control =\nequipment'
p897
(lp898
g25
asS'links'
p899
(lp900
g38
asS'indexing terms'
p901
(lp902
g14
asS']\n\n@article{apte94'
p903
(lp904
g14
asS'marikana area'
p905
(lp906
g38
asS'\xc2\x94\n\ntail piece\n\nwidow douglas\n\ntom backs'
p907
(lp908
g11
asS'discovering data mining'
p909
(lp910
g30
asS'subsequent version'
p911
(lp912
g41
asS'present version'
p913
(lp914
g41
asS'claims'
p915
(lp916
g7
ag41
ag8
asS'document files'
p917
(lp918
g14
asS'widow\n\nvampires\n\nwonders'
p919
(lp920
g11
asS'received copies'
p921
(lp922
g41
asS'6 cubic metres'
p923
(lp924
g38
asS'@*\ninter-governmental maritime consultative organisation'
p925
(lp926
g4
asS'constru=\nction  materials'
p927
(lp928
g25
asS'reuters-21578 text categorization test collection\n                        distribution 1'
p929
(lp930
g14
asS'@end[itemize]\n\nmexico\n@begin[itemize]\n   president miguel de la madrid'
p931
(lp932
g4
asS'tags bracket control\ncharacters'
p933
(lp934
g14
asS'=\nnatural gas'
p935
(lp936
g25
asS'dead-limb trees--dead loads'
p937
(lp938
g11
asS'incorporate parts'
p939
(lp940
g41
asS'nuclear fuels corporation'
p941
(lp942
g38
asS'norfolk island pine'
p943
(lp944
g25
asS'^ [2]\njump'
p945
(lp946
g38
asS'aches perfectly awful'
p947
(lp948
g11
asS'ship repair =\nyard'
p949
(lp950
g25
asS'exact duplicates'
p951
(lp952
g14
asS'yielding stories'
p953
(lp954
g14
asS'limitation lost profits'
p955
(lp956
g7
ag8
asS'describing stately circles--'
p957
(lp958
g11
asS'customer purchasing habits'
p959
(lp960
g30
asS'license grants'
p961
(lp962
g41
asS'usage data'
p963
(lp964
g30
asS'wikimedia foundation'
p965
(lp966
g30
ag38
asS'solely responsible'
p967
(lp968
g7
ag8
asS'los altos'
p969
(lp970
g14
asS'rich deposits'
p971
(lp972
g38
asS'@end[itemize]\n\nyugoslavia\n@begin[itemize]\n   prime minister branko mikulic'
p973
(lp974
g4
asS'rights granted hereunder'
p975
(lp976
g7
ag41
ag8
asS'[8]\ncontents  [hide] \n1'
p977
(lp978
g38
asS'komatiites present'
p979
(lp980
g38
asS'elandskraal mine'
p981
(lp982
g38
asS'@*\neuropean investment bank'
p983
(lp984
g4
asS'governor gerald'
p985
(lp986
g4
asS'participate'
p987
(lp988
g7
ag8
asS'recipient agrees'
p989
(lp990
g7
ag8
asS'face blast'
p991
(lp992
g38
asS'reflections grew oppressive'
p993
(lp994
g11
asS'okairp 2005 fall conference'
p995
(lp996
g30
asS'gitignore'
p997
(lp998
S'sample\\.gitignore'
p999
asS'timestamp duplicate'
p1000
(lp1001
g14
asS'copyright holders'
p1002
(lp1003
g41
asS'multiple\nrandom splits'
p1004
(lp1005
g14
asS'sugar'
p1006
(lp1007
g4
asS'0 test collection'
p1008
(lp1009
g14
asS'illegal domestic spying'
p1010
(lp1011
g30
asS'pirates ashore\n\nwild life'
p1012
(lp1013
g11
asS'falkland islands'
p1014
(lp1015
g25
asS'exports'
p1016
(lp1017
g38
asS'labor force ='
p1018
(lp1019
g25
asS'baron nathaniel mayer rothschild'
p1020
(lp1021
g38
asS'proper complimentary laugh'
p1022
(lp1023
g11
asS'key standard'
p1024
(lp1025
g30
asS'content-based text categorization'
p1026
(lp1027
g14
asS'initial code'
p1028
(lp1029
g7
ag8
asS'restrictions translate'
p1030
(lp1031
g41
asS'[13]\nuranium[edit]\nsouth africa'
p1032
(lp1033
g38
asS'@*\nlondon stock exchange'
p1034
(lp1035
g4
asS'researchers interested'
p1036
(lp1037
g14
asS'mlpack library'
p1038
(lp1039
g30
asS'naval base'
p1040
(lp1041
g25
asS'comply'
p1042
(lp1043
g7
ag8
asS'tectonic setting'
p1044
(lp1045
g38
asS'project gutenberg-tm\nwork'
p1046
(lp1047
g11
asS'consequential damages arising'
p1048
(lp1049
g41
asS'reads commands interactively'
p1050
(lp1051
g41
asS'begin work when--\n\n\xc2\x93sh'
p1052
(lp1053
g11
asS'camp\n\nchapter xv'
p1054
(lp1055
g11
asS'important =\ntimber product'
p1056
(lp1057
g25
asS'proudest moment\n\namy lawrence\n\ntom'
p1058
(lp1059
g11
asS'@end[itemize]\n\n\nunited states\n@begin[itemize]\n   president ronald reagan'
p1060
(lp1061
g4
asS'york cotton exchange'
p1062
(lp1063
g4
asS'kentia palm'
p1064
(lp1065
g25
asS'@end[itemize]\n\n\npakistan\n@begin[itemize]\n   president general zia-ul-haq'
p1066
(lp1067
g4
asS'presiding judge'
p1068
(lp1069
g30
asS'^ biotech business week editors'
p1070
(lp1071
g30
asS'feature sets'
p1072
(lp1073
g14
asS'project\ngutenberg literary archive foundation'
p1074
(lp1075
g11
asS'small-scale enterprises'
p1076
(lp1077
g25
asS'implication'
p1078
(lp1079
g7
ag8
asS'python language'
p1080
(lp1081
g30
asS'understanding data miners'
p1082
(lp1083
g30
asS'effectively expose european users'
p1084
(lp1085
g30
asS'^ mineral commodity summaries\njump'
p1086
(lp1087
g38
asS'truck gardens'
p1088
(lp1089
g25
asS'commercial product offering'
p1090
(lp1091
g7
ag8
asS'analytics'
p1092
(lp1093
g30
asS'uncover information'
p1094
(lp1095
g30
asS'result'
p1096
(lp1097
g7
ag8
asS'chromium\n1'
p1098
(lp1099
g38
asS'average quantity'
p1100
(lp1101
g38
asS'data miner'
p1102
(lp1103
g30
asS'subject'
p1104
(lp1105
g7
ag41
ag8
asS'spencer titley'
p1106
(lp1107
g38
asS'algorithms developed'
p1108
(lp1109
g14
asS'president chiang ching-kuo'
p1110
(lp1111
g4
asS'license file'
p1112
(lp1113
g41
asS'statistical computing'
p1114
(lp1115
g30
asS'largely unexploited =\nreserves'
p1116
(lp1117
g25
asS'personally identifiable information leading'
p1118
(lp1119
g30
asS'data mining\nkdd conference \xe2\x80\x93 acm sigkdd conference'
p1120
(lp1121
g30
asS'widow douglas\xc2\x92 splendid hospitality'
p1122
(lp1123
g11
asS'agricultural  products'
p1124
(lp1125
g25
asS'sudden frost\n\ncounter-irritation\n\naunt polly\n\ntom justified'
p1126
(lp1127
g11
asS'early methods'
p1128
(lp1129
g30
asS'hydroelectric potential'
p1130
(lp1131
g25
asS'primarily agricultural =\nprocessing'
p1132
(lp1133
g25
asS'stakeholder dialogue'
p1134
(lp1135
g30
asS'discovery'
p1136
(lp1137
g38
asS'predict future behaviour'
p1138
(lp1139
g30
asS'sharp points curved forward abreast'
p1140
(lp1141
g11
asS'data mining include'
p1142
(lp1143
g30
asS'terms'
p1144
(lp1145
g7
ag8
ag38
asS'expanding manufacturing base'
p1146
(lp1147
g38
asS'produces basic liquid =\nfuels'
p1148
(lp1149
g25
asS'jim told ben rogers'
p1150
(lp1151
g11
asS'united arab emirates'
p1152
(lp1153
g25
asS'impala platinum holdings limited'
p1154
(lp1155
g38
asS'shallower platinum mines'
p1156
(lp1157
g38
asS'chapter xxiii'
p1158
(lp1159
g11
asS'purchase much-needed machinery'
p1160
(lp1161
g38
asS'including artificial intelligence'
p1162
(lp1163
g30
asS'[16]\npre-processing[edit]'
p1164
(lp1165
g30
asS'extent'
p1166
(lp1167
g41
asS'message understanding evaluation'
p1168
(lp1169
g14
asS'generating export revenues'
p1170
(lp1171
g38
asS'readme describes distribution 1'
p1172
(lp1173
g14
asS'widespread strike'
p1174
(lp1175
g38
asS'received'
p1176
(lp1177
g7
ag41
ag8
asS'palladium\n1'
p1178
(lp1179
g38
asS'cocoa exchange'
p1180
(lp1181
g4
asS'text categorization mailing list'
p1182
(lp1183
g14
asS'country'
p1184
(lp1185
g38
asS'bury poor robin hood'
p1186
(lp1187
g11
asS'uranium-from-gold mining processing plants'
p1188
(lp1189
g38
asS'inform recipients'
p1190
(lp1191
g41
asS'copper exporting countries'
p1192
(lp1193
g4
asS'las vegas'
p1194
(lp1195
g14
asS'data mining projects'
p1196
(lp1197
g30
asS'accepting unsolicited donations'
p1198
(lp1199
g11
asS'public license practices'
p1200
(lp1201
g41
asS'contribution'
p1202
(lp1203
g7
ag8
asS'expense'
p1204
(lp1205
g7
ag8
asS'workers'
p1206
(lp1207
g38
asS'orgs'
p1208
(lp1209
g14
asS'caused additional facilities'
p1210
(lp1211
g38
asS'shamefaced girl lisped'
p1212
(lp1213
g11
asS'exemplary'
p1214
(lp1215
g7
ag8
asS'data mart'
p1216
(lp1217
g30
asS'silica dust'
p1218
(lp1219
g38
asS'project gutenberg literary archive\nfoundation'
p1220
(lp1221
g11
asS'billion years younger'
p1222
(lp1223
g38
asS'8 billion usd'
p1224
(lp1225
g38
asS'analyzing data'
p1226
(lp1227
g30
asS'largest producers'
p1228
(lp1229
g25
asS'trackless great plains'
p1230
(lp1231
g11
asS'indirectly infringes'
p1232
(lp1233
g41
asS'duty--tom practices\nmusic--'
p1234
(lp1235
g11
asS'la paz'
p1236
(lp1237
g25
asS'conference'
p1238
(lp1239
g14
asS'extent applicable law prohibits'
p1240
(lp1241
g41
asS'interesting possibilities'
p1242
(lp1243
g14
asS'irresponsible delirium produced'
p1244
(lp1245
g11
asS'basis'
p1246
(lp1247
g7
ag41
ag8
asS'union'
p1248
(lp1249
g38
asS'original copyright holder'
p1250
(lp1251
g41
asS'small  exports'
p1252
(lp1253
g25
asS'machine\nlearning'
p1254
(lp1255
g14
asS'military =\nsupplies'
p1256
(lp1257
g25
asS'light industrial'
p1258
(lp1259
g25
asS'agriculture minister gerrit braks'
p1260
(lp1261
g4
asS'facilitates analysis'
p1262
(lp1263
g30
asS'implied warranty'
p1264
(lp1265
g41
asS'alan bond'
p1266
(lp1267
g4
asS'rand rebellion\n1'
p1268
(lp1269
g38
asS'oil palm nuts'
p1270
(lp1271
g25
asS'special interest group'
p1272
(lp1273
g30
asS'deeper'
p1274
(lp1275
g38
asS'automobile =\nproduction'
p1276
(lp1277
g25
asS'important differences'
p1278
(lp1279
g38
asS'1999 european cross industry standard process'
p1280
(lp1281
g30
asS'basalt =\nrock'
p1282
(lp1283
g25
asS'mineral deposits'
p1284
(lp1285
g38
asS'subsequent recipients'
p1286
(lp1287
g7
ag8
asS'sixth attribute'
p1288
(lp1289
g14
asS'related topics\ndata mining'
p1290
(lp1291
g30
asS'anglo-american corporation'
p1292
(lp1293
g38
asS'________________________________________________________________\n\n@heading[organization codes'
p1294
(lp1295
g4
asS'forest resources =\nresulting'
p1296
(lp1297
g25
asS'[show]\nclustering[show]\ndimensionality reduction[show]\nstructured prediction[show]\nanomaly detection[show]\nneural nets[show]\nreinforcement learning[show]\ntheory[show]\nmachine learning venues[show]\nportal-puzzle'
p1298
(lp1299
g30
asS'computer science\nauthority control'
p1300
(lp1301
g30
asS'exception'
p1302
(lp1303
g41
asS'positive training examples'
p1304
(lp1305
g14
asS'executable work'
p1306
(lp1307
g41
asS'recent problems'
p1308
(lp1309
g38
asS'unavailability'
p1310
(lp1311
g7
ag8
asS'castro'
p1312
(lp1313
g4
asS'prime minister mir-hossein mousavi'
p1314
(lp1315
g4
asS'data mining process models'
p1316
(lp1317
g30
asS'ben rogers in--'
p1318
(lp1319
g11
asS'expressly included'
p1320
(lp1321
g41
asS'additional\nterms imposed'
p1322
(lp1323
g11
asS'san juan'
p1324
(lp1325
g25
asS'isbn 978-0-12-374765-5\nponcelet'
p1326
(lp1327
g30
asS'actual methods'
p1328
(lp1329
g30
asS'compliance'
p1330
(lp1331
g7
ag41
ag8
asS'general distributional information'
p1332
(lp1333
g14
asS'larger data sets'
p1334
(lp1335
g30
asS'governor dusan vlatkovic'
p1336
(lp1337
g4
asS'project gutenberg-tm works'
p1338
(lp1339
g11
asS'carnegie group'
p1340
(lp1341
g14
asS'platinum mines'
p1342
(lp1343
g38
asS'iv'
p1344
(lp1345
g7
ag8
asS'ii'
p1346
(lp1347
g7
ag8
asS'hurwitz victory index'
p1348
(lp1349
g30
asS'including direct'
p1350
(lp1351
g7
ag8
asS'machine learning \xe2\x80\x93'
p1352
(lp1353
g30
asS'rotten chest full'
p1354
(lp1355
g11
asS'chapter xi\n\nclose'
p1356
(lp1357
g11
asS'chapter vi\n\nmonday morning found tom sawyer miserable'
p1358
(lp1359
g11
asS'test sets'
p1360
(lp1361
g14
asS'purely supervised learning systems'
p1362
(lp1363
g14
asS'stairs creaked faintly'
p1364
(lp1365
g11
asS'finance minister roger douglas'
p1366
(lp1367
g4
asS'make'
p1368
(lp1369
g7
ag8
asS'junit 3'
p1370
(lp1371
g8
asS'construe system\n[hayes89'
p1372
(lp1373
g14
asS'indian ocean'
p1374
(lp1375
g25
asS'coal\n1'
p1376
(lp1377
g38
asS'open tag'
p1378
(lp1379
g14
asS'busy sketching rose-tinted pictures'
p1380
(lp1381
g11
asS'commercial  crops include sugar =\ncane'
p1382
(lp1383
g25
asS'finance minister ahmet kurtcebe alptemocin'
p1384
(lp1385
g4
asS'zealand dollar'
p1386
(lp1387
g4
asS'^ sa replaces india'
p1388
(lp1389
g38
asS'independent'
p1390
(lp1391
g41
asS'@*\ninter-government council'
p1392
(lp1393
g4
asS'reasonable attorneys'
p1394
(lp1395
g41
asS'free/open source licenses'
p1396
(lp1397
g30
asS'mediation authority'
p1398
(lp1399
g38
asS'published'
p1400
(lp1401
g7
ag41
ag8
asS'@*\ngeneral agreement'
p1402
(lp1403
g4
asS'lawrence erlbaum'
p1404
(lp1405
g14
asS'continuous orebodies'
p1406
(lp1407
g38
asS'information science reference'
p1408
(lp1409
g30
asS'story\noriginated'
p1410
(lp1411
g14
asS'ownership'
p1412
(lp1413
g41
asS'}\n\n@phdthesis{lewis91d'
p1414
(lp1415
g14
asS'reached =\nmillion  metric tons'
p1416
(lp1417
g25
asS'\xc2\x92ve helped muff potter'
p1418
(lp1419
g11
asS'reuters stories'
p1420
(lp1421
g14
asS'sigkddd newsletter sigkdd explorations'
p1422
(lp1423
g30
asS'thunder storm\n\nterrible slaughter'
p1424
(lp1425
g11
asS'newly compiled data set'
p1426
(lp1427
g30
asS'enforcing compliance'
p1428
(lp1429
g41
asS'supervised learning'
p1430
(lp1431
g14
asS'@end[itemize]\n\nwest germany\n@begin[itemize]\n   president richard von weizsaecker'
p1432
(lp1433
g4
asS'significant hydropower =\npotential'
p1434
(lp1435
g25
asS'planning minister emilio colombo'
p1436
(lp1437
g4
asS'*text retrieval*'
p1438
(lp1439
g14
asS'injun joe\n_didn\xc2\x92t_ hang'
p1440
(lp1441
g11
asS'threatened constantly'
p1442
(lp1443
g41
asS'electric motors'
p1444
(lp1445
g25
asS'total production'
p1446
(lp1447
g38
asS'phrase \xc2\x93project gutenberg\xc2\x94 appears'
p1448
(lp1449
g11
asS'princeton weekly bulletin'
p1450
(lp1451
g38
asS'food\n        miroslav toman'
p1452
(lp1453
g4
asS'electric power equipment'
p1454
(lp1455
g25
asS'distribute'
p1456
(lp1457
g7
ag41
ag8
asS'@*\ninternational wool textile organisation'
p1458
(lp1459
g4
asS'=\nnatural gas potential'
p1460
(lp1461
g25
asS'upload file\nspecial pages\npermanent link\npage information\nwikidata item\ncite'
p1462
(lp1463
g30
ag38
asS'palestine liberation organisation'
p1464
(lp1465
g4
asS'identify'
p1466
(lp1467
g7
ag8
asS'subspace clustering'
p1468
(lp1469
g30
asS'concrete  =\nproducts'
p1470
(lp1471
g25
asS'widow douglas stayed'
p1472
(lp1473
g11
asS'royalty-free'
p1474
(lp1475
g41
asS'agriculture minister mrs britta schall holberg'
p1476
(lp1477
g4
asS'suspicious incident\n\ninjun joe\xc2\x92'
p1478
(lp1479
g11
asS'feelings investigated--wonderful dream--becky\nthatcher overshadowed--tom'
p1480
(lp1481
g11
asS'support cereal production'
p1482
(lp1483
g25
asS'=\nimportant commercial crop'
p1484
(lp1485
g25
asS'small =\ndeposits'
p1486
(lp1487
g25
asS'commercial data sets'
p1488
(lp1489
g30
asS'babangida'
p1490
(lp1491
g4
asS'invalid people andriesssen'
p1492
(lp1493
g14
asS'finance minister mark eyskens'
p1494
(lp1495
g4
asS'import grain products'
p1496
(lp1497
g25
asS'project gutenberg-tm license'
p1498
(lp1499
g11
asS'deepest mines'
p1500
(lp1501
g38
asS'@*\nislamic conference organisation'
p1502
(lp1503
g4
asS'east'
p1504
(lp1505
g4
asS'unsafe working conditions'
p1506
(lp1507
g38
asS'gold mines'
p1508
(lp1509
g38
asS'project gutenberg-tm electronic works'
p1510
(lp1511
g11
asS'gold field'
p1512
(lp1513
g38
asS'id numbers'
p1514
(lp1515
g14
asS'originally released'
p1516
(lp1517
g41
asS'[ravishing delight overhead'
p1518
(lp1519
g11
asS'non-date noise material'
p1520
(lp1521
g14
asS'clean pine shingle'
p1522
(lp1523
g11
asS'agricultural goods'
p1524
(lp1525
g25
asS'mining weekly'
p1526
(lp1527
g38
asS'\xc2\x92ll ha\xc2\x92nt'
p1528
(lp1529
g11
asS'open source machine learning library'
p1530
(lp1531
g30
asS'crop production'
p1532
(lp1533
g25
asS'salomon bros'
p1534
(lp1535
g4
asS'information discovery'
p1536
(lp1537
g30
asS'commercial contributor'
p1538
(lp1539
g7
ag8
asS'singapore dollar'
p1540
(lp1541
g4
asS'fisheries products'
p1542
(lp1543
g25
asS'de beers operations accounted'
p1544
(lp1545
g38
asS'practical machine learning'
p1546
(lp1547
g30
asS'natural rubber producing countries'
p1548
(lp1549
g4
asS'short sandy hair'
p1550
(lp1551
g11
asS'home\n\naunt polly beguiled'
p1552
(lp1553
g11
asS'steve\nfinch'
p1554
(lp1555
g14
asS'requirements apply'
p1556
(lp1557
g41
asS'trade minister zheng tuobin'
p1558
(lp1559
g4
asS'general secretary'
p1560
(lp1561
g4
asS'people'
p1562
(lp1563
g4
ag14
asS'identify specific individuals'
p1564
(lp1565
g30
asS'actual data mining task'
p1566
(lp1567
g30
asS'provision valid'
p1568
(lp1569
g7
ag8
asS'phil\nhayes gave lists'
p1570
(lp1571
g4
asS'providing continuous roof support'
p1572
(lp1573
g38
asS'frail limbs refused'
p1574
(lp1575
g11
asS'securities dealers automated quotation system'
p1576
(lp1577
g4
asS'resulting executable'
p1578
(lp1579
g41
asS'failure\n\nchapter xxxv'
p1580
(lp1581
g11
asS'good discussion'
p1582
(lp1583
g14
asS'advanced cluster analysis'
p1584
(lp1585
g30
asS'<text type='
p1586
(lp1587
g14
asS'@end[itemize]\n\nchina\n@begin[itemize]\n   president li xiannian'
p1588
(lp1589
g4
asS'data mining\n3'
p1590
(lp1591
g30
asS'@*\nbaltic international freight futures exchange'
p1592
(lp1593
g4
asS'order\nchronologically'
p1594
(lp1595
g14
asS'leading economic indicators'
p1596
(lp1597
g4
asS'data snooping refer'
p1598
(lp1599
g30
asS'/'
(lp1600
g30
ag7
ag8
ag14
asS'@end[itemize]\n\naustria\n@begin[itemize]\n   president kurt waldheim'
p1601
(lp1602
g4
asS'data\n[lewis94b]'
p1603
(lp1604
g14
asS'type `show'
p1605
(lp1606
g41
asS'project gutenberg volunteers'
p1607
(lp1608
g11
asS'wretchedness rise superior'
p1609
(lp1610
g11
asS'@*\ninternational petroleum exchange'
p1611
(lp1612
g4
asS'tourist\nstares longest'
p1613
(lp1614
g11
asS'central =\neurope'
p1615
(lp1616
g25
asS'open text corporation\noracle data mining'
p1617
(lp1618
g30
asS'eric brown'
p1619
(lp1620
g14
asS'project gutenberg ebook tom sawyer ***\n\n*****'
p1621
(lp1622
g11
asS'text categorization methods'
p1623
(lp1624
g14
asS'light  =\nmanubgfacturing'
p1625
(lp1626
g25
asS'peninsula energy'
p1627
(lp1628
g38
asS'predictive model markup language'
p1629
(lp1630
g30
asS'component-based data mining'
p1631
(lp1632
g30
asS'excluding conflict-of-law provisions'
p1633
(lp1634
g41
asS'permitted'
p1635
(lp1636
g7
ag41
ag8
asS'multivariate data sets'
p1637
(lp1638
g30
asS'limitation'
p1639
(lp1640
g7
ag41
ag8
asS'oil =\ndrilling equipment'
p1641
(lp1642
g25
asS'unstructured information management architecture'
p1643
(lp1644
g30
asS'international conference'
p1645
(lp1646
g30
asS'import large =\nshare'
p1647
(lp1648
g25
asS'automatically'
p1649
(lp1650
g41
asS'hapless half-breed scooped'
p1651
(lp1652
g11
asS'prime minister mohammad khan junejo'
p1653
(lp1654
g4
asS'alum\nbarley\ncarcass\ncastor-meal\ncastor-oil\ncastorseed\ncitruspulp\ncocoa\ncoconut-oil\ncoconut\ncoffee\ncopper\ncopra-cake\ncorn-oil\ncorn\ncornglutenfeed\ncotton \ncotton-meal\ncotton-oil\ncottonseed\nf-cattle\nfishmeal\nflaxseed\ngold\ngrain\ngroundnut\ngroundnut-meal\ngroundnut-oil\niron-steel\nlead\nlin-meal\nlin-oil\nlinseed\nlivestock\nl-cattle\nhog\nlumber\nlupin\nmeal-feed\nnickel\noat\noilseed\norange\npalladium\npalm-meal\npalm-oil\npalmkernel\nplatinum\nplywood\npork-belly\npotato\nrape-meal\nrape-oil\nrapeseed\nred-bean\nrice\nrubber\nrye\nsilk\nsilver\nsorghum\nsoy-meal\nsoy-oil\nsoybean\nstrategic-metal\nsugar\nsun-meal\nsun-oil\nsunseed\ntapioca\ntea\ntin\ntung-oil\ntung\nveg-oil\nwheat\nwool\nzinc\n\n**energy codes'
p1655
(lp1656
g4
asS'industrial =\nequipment'
p1657
(lp1658
g25
asS'@end[itemize]\n\nlibya\n@begin[itemize]\nmuammar gaddafi'
p1659
(lp1660
g4
asS'maximum extent'
p1661
(lp1662
g41
asS'second-largest  tungsten producer'
p1663
(lp1664
g25
asS'basic =\nmetals'
p1665
(lp1666
g25
asS'governor john crow'
p1667
(lp1668
g4
asS'\xc5\xa1tina\ndansk\ndeutsch\neesti\n\xce\x95\xce\xbb\xce\xbb\xce\xb7\xce\xbd\xce\xb9\xce\xba\xce\xac\nespa\xc3\xb1ol\neuskara\n\xd9\x81\xd8\xa7\xd8\xb1\xd8\xb3\xdb\x8c\nfran\xc3\xa7ais\n\xed\x95\x9c\xea\xb5\xad\xec\x96\xb4\n\xe0\xa4\xb9\xe0\xa4\xbf\xe0\xa4\xa8\xe0\xa5\x8d\xe0\xa4\xa6\xe0\xa5\x80\nhrvatski\nbahasa indonesia\nitaliano\n\xd7\xa2\xd7\x91\xd7\xa8\xd7\x99\xd7\xaa\n\xe0\xb2\x95\xe0\xb2\xa8\xe0\xb3\x8d\xe0\xb2\xa8\xe0\xb2\xa1\nlatvie\xc5\xa1'
p1669
(lp1670
g30
asS'imports large share'
p1671
(lp1672
g25
asS'government end users acquire covered software'
p1673
(lp1674
g41
asS'saint louis smarty'
p1675
(lp1676
g11
asS'south africa showed'
p1677
(lp1678
g38
asS'common development'
p1679
(lp1680
g41
asS'reuters-21578 document'
p1681
(lp1682
g14
asS'support'
p1683
(lp1684
g38
asS'started running'
p1685
(lp1686
g41
asS'=\nvojvodina produce'
p1687
(lp1688
g25
asS'cook =\nislands'
p1689
(lp1690
g25
asS'deepwater =\nports'
p1691
(lp1692
g25
asS'program specifies'
p1693
(lp1694
g41
asS'camdessus'
p1695
(lp1696
g4
asS'court--muff potter\nsaved\n\nchapter xxiv'
p1697
(lp1698
g11
asS'war'
p1699
(lp1700
g38
asS'gold fields'
p1701
(lp1702
g38
asS'free software foundation'
p1703
(lp1704
g41
asS'finance minister gerhard stoltenberg'
p1705
(lp1706
g4
asS'head'
p1707
(lp1708
g4
asS'finance minister erkki liikanen'
p1709
(lp1710
g4
asS'effectively disclaims'
p1711
(lp1712
g7
ag8
asS'@end[itemize]\n\naustralia\n@begin[itemize]\n   prime minister robert'
p1713
(lp1714
g4
asS'form'
p1715
(lp1716
g41
asS'appropriateness'
p1717
(lp1718
g7
ag8
asS'unduly influence'
p1719
(lp1720
g14
asS'finest dramatic manner'
p1721
(lp1722
g11
asS'south african rand'
p1723
(lp1724
g4
asS'sparckjones76'
p1725
(lp1726
g14
asS'failure'
p1727
(lp1728
g7
ag41
ag8
asS'white house chief'
p1729
(lp1730
g4
asS'original data*'
p1731
(lp1732
g14
asS'governor jean godeaux'
p1733
(lp1734
g4
asS'presidential council karoly nemeth'
p1735
(lp1736
g4
asS'minimum extent'
p1737
(lp1738
g7
ag8
asS'=\nmetal products'
p1739
(lp1740
g25
asS'isbn 978-1-59749-272-0\nweiss'
p1741
(lp1742
g30
asS'recipient receives'
p1743
(lp1744
g7
ag8
asS'portions'
p1745
(lp1746
g41
asS'acceptable time limit'
p1747
(lp1748
g30
asS'dar es salaam'
p1749
(lp1750
g25
asS'belonged to--injun\njoe\xc2\x92'
p1751
(lp1752
g11
asS'confidence betrayed--expects signal punishment\n\nchapter xxiii'
p1753
(lp1754
g11
asS'[citation needed]'
p1755
(lp1756
g38
asS'irene nirenburg'
p1757
(lp1758
g14
asS'project gutenberg literary\narchive foundation\n\nproject gutenberg-tm depends'
p1759
(lp1760
g11
asS'official\nversion posted'
p1761
(lp1762
g11
asS'extent applicable law'
p1763
(lp1764
g41
asS'root crops'
p1765
(lp1766
g25
asS'electric power  equipment'
p1767
(lp1768
g25
asS'world pharmaceutical industry'
p1769
(lp1770
g25
asS'lost profits'
p1771
(lp1772
g7
ag8
asS'@end[itemize]\n\ngreece\n@begin[itemize]\n   president christos sartzetakis'
p1773
(lp1774
g4
asS'hayes testset documents made'
p1775
(lp1776
g14
asS'history'
p1777
(lp1778
g38
asS'reuters-21578 collection appeared'
p1779
(lp1780
g14
asS'iadis european conference'
p1781
(lp1782
g30
asS'chapter xix\n\ntom arrived'
p1783
(lp1784
g11
asS'exposing alfred temple'
p1785
(lp1786
g11
asS'venue lying'
p1787
(lp1788
g41
asS'night planning vengeance'
p1789
(lp1790
g11
asS'phrase \xc2\x93project\ngutenberg\xc2\x94'
p1791
(lp1792
g11
asS'indirect'
p1793
(lp1794
g7
ag8
asS'chancellor helmut kohl'
p1795
(lp1796
g4
asS'university research project'
p1797
(lp1798
g30
asS'beaded dewdrops stood'
p1799
(lp1800
g11
asS'small reserves'
p1801
(lp1802
g25
asS'camp--fire\ntalk\n\nchapter xiv'
p1803
(lp1804
g11
asS'work =\nforce'
p1805
(lp1806
g25
asS'biggest discovery'
p1807
(lp1808
g38
asS'free software'
p1809
(lp1810
g41
asS'electric =\npower'
p1811
(lp1812
g25
asS'power'
p1813
(lp1814
g38
asS'high performance data mining'
p1815
(lp1816
g30
asS'omission\n\nchapter iv'
p1817
(lp1818
g11
asS'computer science'
p1819
(lp1820
g30
asS'test'
p1821
(lp1822
g14
asS'small black bug appeared'
p1823
(lp1824
g11
asS'state bank'
p1825
(lp1826
g4
asS'blue lights flickering'
p1827
(lp1828
g11
asS'semifinished goods'
p1829
(lp1830
g25
asS'unexploited deposits'
p1831
(lp1832
g25
asS'forming reuters-21578'
p1833
(lp1834
g14
asS'business applications'
p1835
(lp1836
g30
asS'professional home page'
p1837
(lp1838
g14
asS'[13]\nplatinum'
p1839
(lp1840
g38
asS'licks anybody--whacks \xc2\x91em'
p1841
(lp1842
g11
asS'es=\ncap'
p1843
(lp1844
g25
asS'original software prohibiting'
p1845
(lp1846
g41
asS'original hayes split'
p1847
(lp1848
g14
asS'source'
p1849
(lp1850
g41
asS'@*\nkuala lumpur commodity exchange'
p1851
(lp1852
g4
asS'topics\ncategories'
p1853
(lp1854
g14
asS'petroleum exporting countries'
p1855
(lp1856
g4
asS'cross water baffled pursuit'
p1857
(lp1858
g11
asS'modules'
p1859
(lp1860
g41
asS'close link'
p1861
(lp1862
g30
asS'including warranties'
p1863
(lp1864
g7
ag8
asS'business understanding'
p1865
(lp1866
g30
asS'common source'
p1867
(lp1868
g30
asS'palladium'
p1869
(lp1870
g38
asS'@end[itemize]\n\nperu\n@begin[itemize]\n   president alan garcia'
p1871
(lp1872
g4
asS'manubgfactured =\ngoods'
p1873
(lp1874
g25
asS'grating delight intrude'
p1875
(lp1876
g11
asS'input data'
p1877
(lp1878
g30
asS'published numbers'
p1879
(lp1880
g4
asS'san diego-based company'
p1881
(lp1882
g30
asS'place counts'
p1883
(lp1884
g41
asS'man-hoisting shaft'
p1885
(lp1886
g38
asS'witwatersrand basin area'
p1887
(lp1888
g38
asS'solemn hush continued'
p1889
(lp1890
g11
asS'version published'
p1891
(lp1892
g41
asS'200 workers'
p1893
(lp1894
g38
asS'political\ngovernment compared'
p1895
(lp1896
g11
asS'governor wasim aun jaffrey'
p1897
(lp1898
g4
asS'suitable separate entity'
p1899
(lp1900
g7
ag8
asS'terrific lightning revelled'
p1901
(lp1902
g11
asS'iron ore'
p1903
(lp1904
g38
asS'main crops'
p1905
(lp1906
g25
asS'@end[itemize]\n\nsouth africa\n@begin[itemize]\n   president'
p1907
(lp1908
g4
asS'data fishing'
p1909
(lp1910
g30
asS'drive four-horse passenger-coaches twenty'
p1911
(lp1912
g11
asS'agriculture minister michael'
p1913
(lp1914
g4
asS'human indexers'
p1915
(lp1916
g14
asS'john chesley'
p1917
(lp1918
g38
asS'sarney'
p1919
(lp1920
g4
asS'0'
(lp1921
g7
asS'british virgin islands'
p1922
(lp1923
g25
asS'world average'
p1924
(lp1925
g38
asS'gawky big boys'
p1926
(lp1927
g11
asS'finance minister'
p1928
(lp1929
g4
asS'larger population data set'
p1930
(lp1931
g30
asS'industry minister ilkka suominen'
p1932
(lp1933
g4
asS'acm transactions'
p1934
(lp1935
g14
asS'curiously\ninconsistent pirates fell peacefully'
p1936
(lp1937
g11
asS'previously published results'
p1938
(lp1939
g14
asS'south african national museum'
p1940
(lp1941
g38
asS'terminate'
p1942
(lp1943
g7
ag8
asS'liability'
p1944
(lp1945
g7
ag41
ag8
asS'energy secretary john herrington'
p1946
(lp1947
g4
asS'doctor murmured inarticulately'
p1948
(lp1949
g11
asS'worldbank'
p1950
(lp1951
g274
asS'greater length'
p1952
(lp1953
g14
asS'document type declaration line'
p1954
(lp1955
g14
asS'mining instant messaging services'
p1956
(lp1957
g30
asS'supervised learning algorithm'
p1958
(lp1959
g14
asS'united =\nstates'
p1960
(lp1961
g25
asS'commercial computer software'
p1962
(lp1963
g41
asS'satisfy simultaneously'
p1964
(lp1965
g41
asS'cossiga'
p1966
(lp1967
g4
asS'bring'
p1968
(lp1969
g7
ag8
asS'bruce croft'
p1970
(lp1971
g14
asS'mineworkers announced'
p1972
(lp1973
g38
asS'finance minister miklos villanyi'
p1974
(lp1975
g4
asS'ear-splitting explosive bursts'
p1976
(lp1977
g11
asS'military =\nproducts'
p1978
(lp1979
g25
asS'2005 minerals yearbook'
p1980
(lp1981
g38
asS'indexer made'
p1982
(lp1983
g14
asS'subspace clustering models'
p1984
(lp1985
g30
asS'character including'
p1986
(lp1987
g41
asS'york stock exchange'
p1988
(lp1989
g4
asS'makes performance claims'
p1990
(lp1991
g7
ag8
asS'patent claims infringed'
p1992
(lp1993
g41
asS'singing buffalo gals'
p1994
(lp1995
g11
asS'profitable mining started'
p1996
(lp1997
g38
asS'fish catch increasing'
p1998
(lp1999
g25
asS'data mining applications'
p2000
(lp2001
g30
asS'prediction'
p2002
(lp2003
g30
asS'drilling dust'
p2004
(lp2005
g38
asS'miscellaneous manubgfactured =\narticles'
p2006
(lp2007
g25
asS'massive online analysis'
p2008
(lp2009
g30
asS'liability obligation'
p2010
(lp2011
g41
asS'participant software directly'
p2012
(lp2013
g41
asS'automobile assembly'
p2014
(lp2015
g25
asS'preserve free future access'
p2016
(lp2017
g11
asS'sail thro\xc2\x92 _blood_-'
p2018
(lp2019
g11
asS'erasmus jacobs'
p2020
(lp2021
g38
asS'including mines devoted'
p2022
(lp2023
g38
asS'economic cooperation'
p2024
(lp2025
g4
asS'newly discovered diamond fields'
p2026
(lp2027
g38
asS'true negative'
p2028
(lp2029
g14
asS'agriculture minister yannis pottakis'
p2030
(lp2031
g4
asS'acq\nalum\naustdlr\naustral\nbarley\nbfr\nbop'
p2032
(lp2033
g279
asS'ancient river deltas'
p2034
(lp2035
g38
asS'robin hood\n\nmidnight\n\ntom\xc2\x92'
p2036
(lp2037
g11
asS'ostentatiously\nleading potter'
p2038
(lp2039
g11
asS'odd superstitions touched'
p2040
(lp2041
g11
asS'remain'
p2042
(lp2043
g41
asS'}\n\n@inproceedings{apte94b'
p2044
(lp2045
g14
asS'including\nunusual distribution'
p2046
(lp2047
g14
asS'acm sigkdd'
p2048
(lp2049
g30
asS'mining production'
p2050
(lp2051
g38
asS'delimit elements'
p2052
(lp2053
g14
asS'@end[itemize]\n\niceland\n@begin[itemize]\n   president mrs vigdis finnbogadottir'
p2054
(lp2055
g4
asS'satisfy'
p2056
(lp2057
g41
asS'morning\ntom sawyer wisely'
p2058
(lp2059
g11
asS'crops include cotton'
p2060
(lp2061
g25
asS'transportation'
p2062
(lp2063
g38
asS'petroleum products'
p2064
(lp2065
g38
asS'license published'
p2066
(lp2067
g41
asS'free encyclopedia'
p2068
(lp2069
g30
asS'united nations secretary-general javier perez de cuellar'
p2070
(lp2071
g4
asS'litigation relating'
p2072
(lp2073
g41
asS'lange'
p2074
(lp2075
g4
asS'data records'
p2076
(lp2077
g30
asS'invalid categories'
p2078
(lp2079
g14
asS'based'
p2080
(lp2081
g41
ag14
asS'expressly excluded'
p2082
(lp2083
g41
asS'small specialty =\nmachinery'
p2084
(lp2085
g25
asS'change'
p2086
(lp2087
g41
asS'top level document-internal tags'
p2088
(lp2089
g14
asS'postage stamp =\nsales'
p2090
(lp2091
g25
asS'economy exists =\nlargely'
p2092
(lp2093
g25
asS'al meant'
p2094
(lp2095
g14
asS'booming thunderblasts drowned'
p2096
(lp2097
g11
asS'duplicate documents removed'
p2098
(lp2099
g14
asS']\n@begin[format]\nafrican development bank'
p2100
(lp2101
g4
asS'machine learning software suite written'
p2102
(lp2103
g30
asS'scarcely perceptible noises began'
p2104
(lp2105
g11
asS'heavy =\nelectrical equipment'
p2106
(lp2107
g25
asS'south east asian nations'
p2108
(lp2109
g4
asS'central bank president dr matyas timar'
p2110
(lp2111
g4
asS'society\n\ncontentment\n\n\n\n\npreface'
p2112
(lp2113
g11
asS'form\n\n    <reuters topics='
p2114
(lp2115
g14
asS'steep clay hill twenty'
p2116
(lp2117
g11
asS'project gutenberg-tm trademark'
p2118
(lp2119
g11
asS'elect'
p2120
(lp2121
g7
ag8
asS'fewer\ndocument'
p2122
(lp2123
g14
asS'jar'
p2124
(lp2125
g8
asS'gold[edit]\n\nsouth africa mined gold production'
p2126
(lp2127
g38
asS'statistica data miner'
p2128
(lp2129
g30
asS'extract information'
p2130
(lp2131
g30
asS'yellow\nhair plaited'
p2132
(lp2133
g11
asS'low =\nlevels'
p2134
(lp2135
g25
asS'precious sunday-school privileges'
p2136
(lp2137
g11
asS'strong privacy laws'
p2138
(lp2139
g30
asS'forestry minister ignaz kiechle'
p2140
(lp2141
g4
asS'data aggregation involves combining data'
p2142
(lp2143
g30
asS'delamuraz'
p2144
(lp2145
g4
asS'test\nset'
p2146
(lp2147
g14
asS'working'
p2148
(lp2149
g38
asS'liquefied natural gas'
p2150
(lp2151
g25
asS'**commodity codes'
p2152
(lp2153
g4
asS'dmoz\n[show]'
p2154
(lp2155
g30
asS'france'
p2156
(lp2157
g4
asS'open/close tag pair'
p2158
(lp2159
g14
asS'svg\nproblems[show]\nsupervised learning'
p2160
(lp2161
g30
asS'liability obligations'
p2162
(lp2163
g41
asS'refined oil products'
p2164
(lp2165
g25
asS'leading industrial power'
p2166
(lp2167
g25
asS'apparatus claims'
p2168
(lp2169
g41
asS'amex\nase\nasx\nbiffex\nbse\ncboe\ncbt\ncme\ncomex\ncse\nfox\nfse\nhkse\nipe\njse\nklce\nklse\nliffe\nlme\nlse\nmase\nmise\nmnse\nmose\nnasdaq\nnyce\nnycsce\nnymex\nnyse\nose\npse\nset\nsimex\nsse\nstse\ntose\ntse\nwce\nzse'
p2170
(lp2171
g272
asS'search histories'
p2172
(lp2173
g30
asS'johnny miller bought'
p2174
(lp2175
g11
asS'distribute verbatim copies'
p2176
(lp2177
g41
asS'rights granted'
p2178
(lp2179
g7
ag41
ag8
asS'subsistence farming =\nprevails'
p2180
(lp2181
g25
asS'explicit\ndecision'
p2182
(lp2183
g14
asS'fourth message understanding conference'
p2184
(lp2185
g14
asS'feature tuple representations'
p2186
(lp2187
g14
asS'individual reuters articles marked'
p2188
(lp2189
g14
asS'tin producing countries'
p2190
(lp2191
g4
asS'validity'
p2192
(lp2193
g7
ag8
asS'data extraction'
p2194
(lp2195
g14
asS'information retrieval\nlaboratory'
p2196
(lp2197
g14
asS'free encyclopedia\n\npremier diamond mine'
p2198
(lp2199
g38
asS'6 day long week'
p2200
(lp2201
g38
asS'copyright license set'
p2202
(lp2203
g7
ag8
asS'behalf'
p2204
(lp2205
g7
ag8
asS'published results'
p2206
(lp2207
g14
asS'national military academy'
p2208
(lp2209
g11
asS'ambiguous formatting'
p2210
(lp2211
g14
asS'ibm'
p2212
(lp2213
g8
asS'central bank president stephan koren'
p2214
(lp2215
g4
asS'minds evidently wandering'
p2216
(lp2217
g11
asS'cambridge university press'
p2218
(lp2219
g30
asS'machine learning'
p2220
(lp2221
g30
ag14
asS'narrower\ncrevices branched'
p2222
(lp2223
g11
asS'</reuters> tags'
p2224
(lp2225
g14
asS'running conveyors'
p2226
(lp2227
g38
asS'text tag appears simply'
p2228
(lp2229
g14
asS'making'
p2230
(lp2231
g41
asS'@*\nfrankfurt stock exchange/bourse'
p2232
(lp2233
g4
asS'cluster analysis'
p2234
(lp2235
g30
asS'individual project gutenberg-tm electronic work'
p2236
(lp2237
g11
asS'adored unknown lived'
p2238
(lp2239
g11
asS'sudden tenderness dawned'
p2240
(lp2241
g11
asS'minerals'
p2242
(lp2243
g38
asS'<text>'
p2244
(lp2245
g14
asS'invalid topic'
p2246
(lp2247
g14
asS'reading[edit]\ncabena'
p2248
(lp2249
g30
asS'reuters-22173 distribution\nincluded'
p2250
(lp2251
g14
asS'licensed'
p2252
(lp2253
g41
asS'vague august realm'
p2254
(lp2255
g11
asS'broke lose'
p2256
(lp2257
g38
asS'extent caused'
p2258
(lp2259
g7
ag8
asS'[25][26]\ndata mining requires data preparation'
p2260
(lp2261
g30
asS'collection consists'
p2262
(lp2263
g14
asS'year = 1990\n}\n\n@incollection{hayes92'
p2264
(lp2265
g14
asS'data mining patterns'
p2266
(lp2267
g30
asS'agriculture minister remigio morales bermudez'
p2268
(lp2269
g4
asS'socialist unity party'
p2270
(lp2271
g4
asS'creative commons attribution-sharealike license'
p2272
(lp2273
g30
ag38
asS'requirements'
p2274
(lp2275
g7
ag41
ag8
asS'arable land =\npotential'
p2276
(lp2277
g25
asS'means'
p2278
(lp2279
g7
ag8
asS'brown spotted lady-bug climbed'
p2280
(lp2281
g11
asS'1'
(lp2282
g7
ag8
asS'creating\nderivative works based'
p2283
(lp2284
g11
asS'<orgs>'
p2285
(lp2286
g14
asS'data mining group'
p2287
(lp2288
g30
asS'gr=\nain na%'
p2289
(lp2290
g25
asS'polish united workers'
p2291
(lp2292
g4
asS'finance minister suthee singhasaneh'
p2293
(lp2294
g4
asS'economy'
p2295
(lp2296
g38
asS'animal  output'
p2297
(lp2298
g25
asS'product'
p2299
(lp2300
g7
ag8
asS'great interest'
p2301
(lp2302
g14
asS'livestock  include =\nrice'
p2303
(lp2304
g25
asS'solomon islands'
p2305
(lp2306
g25
asS'copyright disclaimer'
p2307
(lp2308
g41
asS'party intellectual property claims'
p2309
(lp2310
g41
asS'pattern recognition\npakdd conference \xe2\x80\x93'
p2311
(lp2312
g30
asS'mines facts'
p2313
(lp2314
g38
asS'menu items--'
p2315
(lp2316
g41
asS'date'
p2317
(lp2318
g7
ag41
ag8
asS'consumer =\ndurables'
p2319
(lp2320
g25
asS'data'
p2321
(lp2322
g7
ag8
asS'young lady teachers \xc2\x93showed'
p2323
(lp2324
g11
asS'splendid elegant bible--'
p2325
(lp2326
g11
asS'south african police service'
p2327
(lp2328
g38
asS'exchange commission chairman david'
p2329
(lp2330
g4
asS'@end[itemize]\n\nphilippines\n@begin[itemize]\n   president mrs corazon aquino'
p2331
(lp2332
g4
asS'data mining algorithm'
p2333
(lp2334
g30
asS'market overview'
p2335
(lp2336
g38
asS'area ultimately contributing'
p2337
(lp2338
g38
asS'^ mineral commodity summaries\n^ jump'
p2339
(lp2340
g38
asS'educational data mining\ninfocom conference \xe2\x80\x93 ieee infocom\nicdm conference \xe2\x80\x93 ieee international conference'
p2341
(lp2342
g30
asS'classification task'
p2343
(lp2344
g14
asS'modapte split'
p2345
(lp2346
g14
asS'remove documents'
p2347
(lp2348
g14
asS'de beers consolidated mines company'
p2349
(lp2350
g38
asS'makes original software'
p2351
(lp2352
g41
asS'rolled products'
p2353
(lp2354
g25
asS'tag appears'
p2355
(lp2356
g14
asS'definitions'
p2357
(lp2358
g7
ag8
asS'law enforcement purposes'
p2359
(lp2360
g30
asS'temporal databases\nwsdm conference \xe2\x80\x93 acm conference'
p2361
(lp2362
g30
asS'textual request'
p2363
(lp2364
g14
asS'se'
p2365
(lp2366
g7
ag8
asS'make restrictions'
p2367
(lp2368
g41
asS'officials meet'
p2369
(lp2370
g38
asS'* legal\ncategories'
p2371
(lp2372
g14
asS'strike'
p2373
(lp2374
g38
asS'full project gutenberg license'
p2375
(lp2376
g11
asS'de beers'
p2377
(lp2378
g38
asS'entity'
p2379
(lp2380
g7
ag41
ag8
asS'furious blast roared'
p2381
(lp2382
g11
asS'**economic indicator codes'
p2383
(lp2384
g4
asS'single\nstar quivered'
p2385
(lp2386
g11
asS'publicly display'
p2387
(lp2388
g7
ag8
asS'rowing cautiously upstream'
p2389
(lp2390
g11
asS'story belonged'
p2391
(lp2392
g14
asS'energy minister subroto'
p2393
(lp2394
g4
asS'police'
p2395
(lp2396
g38
asS'eser'
p2397
(lp2398
g4
asS'international conferences'
p2399
(lp2400
g30
asS'companies categories\nassigned'
p2401
(lp2402
g14
asS'united kingdom'
p2403
(lp2404
g25
asS'tort'
p2405
(lp2406
g7
ag8
asS'industrial diamonds'
p2407
(lp2408
g38
asS'jeff thatcher immediately'
p2409
(lp2410
g11
asS'<title>\nelement'
p2411
(lp2412
g14
asS'rivers platinum mine'
p2413
(lp2414
g38
asS'media related'
p2415
(lp2416
g30
asS'agriculture minister mohammad ibrahim jaffrey baluch'
p2417
(lp2418
g4
asS'entity analytics products'
p2419
(lp2420
g30
asS'modified versions'
p2421
(lp2422
g41
asS'hydropo=\nwer'
p2423
(lp2424
g25
asS'documents lack topics categories'
p2425
(lp2426
g14
asS'computer sciences'
p2427
(lp2428
g30
asS'miss harper\nhugged'
p2429
(lp2430
g11
asS'large =\nfood deficit'
p2431
(lp2432
g25
asS'governor satoshi sumita'
p2433
(lp2434
g4
asS'drilling'
p2435
(lp2436
g38
asS'sir ernest oppenheimer'
p2437
(lp2438
g38
asS'president declares week'
p2439
(lp2440
g38
asS'economy minister panayotis roumeliotis'
p2441
(lp2442
g4
asS'produce html reports'
p2443
(lp2444
g30
asS'59 temple place'
p2445
(lp2446
g41
asS'provision'
p2447
(lp2448
g7
ag8
asS'exact order'
p2449
(lp2450
g14
asS'united states geological survey'
p2451
(lp2452
g38
asS'steve finch'
p2453
(lp2454
g14
asS'26 september 1997\n\n                         david'
p2455
(lp2456
g14
asS'swam quartering\nupstream'
p2457
(lp2458
g11
asS'paying copyright royalties'
p2459
(lp2460
g11
asS'largest =\nfish catch'
p2461
(lp2462
g25
asS'current month customarily upset'
p2463
(lp2464
g11
asS'knowledge management\ndmin conference \xe2\x80\x93 international conference'
p2465
(lp2466
g30
asS'global surveillance disclosure'
p2467
(lp2468
g30
asS'subsequent contributor'
p2469
(lp2470
g7
ag8
asS'black-haired young lady'
p2471
(lp2472
g11
asS'understandable structure'
p2473
(lp2474
g30
asS'uk\nquantitative structure\xe2\x80\x93activity relationship\nsurveillance / mass surveillance'
p2475
(lp2476
g30
asS'original authors'
p2477
(lp2478
g41
asS'refined =\npetroleum products'
p2479
(lp2480
g25
asS'light  manubgfacturing'
p2481
(lp2482
g25
asS'rare =\nwoods'
p2483
(lp2484
g25
asS'country rock'
p2485
(lp2486
g38
asS'cotton  piece =\ngoods'
p2487
(lp2488
g25
asS'contributor includes'
p2489
(lp2490
g7
ag8
asS'deepest mine'
p2491
(lp2492
g38
asS'half-cured leaf tobacco'
p2493
(lp2494
g11
asS'data mining task'
p2495
(lp2496
g30
asS'year'
p2497
(lp2498
g7
ag8
asS'distributor'
p2499
(lp2500
g41
asS'physical act'
p2501
(lp2502
g41
asS'young gentlemen\nteachers \xc2\x93showed'
p2503
(lp2504
g11
asS'plans'
p2505
(lp2506
g38
asS'gonzalez'
p2507
(lp2508
g4
asS'option offer warranty protection'
p2509
(lp2510
g41
asS'griqualand west'
p2511
(lp2512
g38
asS'patent infringement litigation'
p2513
(lp2514
g41
asS'hayes90b discusses'
p2515
(lp2516
g14
asS'@end[itemize]\n\ninternational monetary fund managing director michel camdessus'
p2517
(lp2518
g4
asS'prespecified categories'
p2519
(lp2520
g14
asS'small livestock sector'
p2521
(lp2522
g25
asS'durable consumer  goods'
p2523
(lp2524
g25
asS'project\ngutenberg-tm trademark'
p2525
(lp2526
g11
asS'data file format'
p2527
(lp2528
g14
asS'diamond production'
p2529
(lp2530
g38
asS'receive copies directly'
p2531
(lp2532
g41
asS'change free software--'
p2533
(lp2534
g41
asS'acm sigir'
p2535
(lp2536
g14
asS'wholly unpeopled forest'
p2537
(lp2538
g11
asS'injun joe poke'
p2539
(lp2540
g11
asS'@*\neuropean coal'
p2541
(lp2542
g4
asS'finance minister boris gostyev'
p2543
(lp2544
g4
asS'copyright holder'
p2545
(lp2546
g41
asS'theory'
p2547
(lp2548
g7
ag8
asS'finding documents'
p2549
(lp2550
g14
asS'intellectual property infringement'
p2551
(lp2552
g11
asS'possibility'
p2553
(lp2554
g7
ag8
asS'external links\netymology[edit]'
p2555
(lp2556
g30
asS'commerce secretary'
p2557
(lp2558
g4
asS'categorization'
p2559
(lp2560
g14
asS'@*\ninternational cocoa organisation'
p2561
(lp2562
g4
asS'exhausting good time playing \xc2\x93hispy\xc2\x94'
p2563
(lp2564
g11
asS'remainder'
p2565
(lp2566
g7
ag8
asS'animal =\nhusbandry'
p2567
(lp2568
g25
asS'software'
p2569
(lp2570
g7
ag41
ag8
asS'statement\n\ntail piece\n\nhuck transformed\n\ncomfortable'
p2571
(lp2572
g11
asS'number stated      number'
p2573
(lp2574
g4
asS'machinery =\nmanubgfactured goods'
p2575
(lp2576
g25
asS'language'
p2577
(lp2578
g14
asS'references\nhistory[edit]'
p2579
(lp2580
g38
asS'@*\ninternational development association'
p2581
(lp2582
g4
asS'semitropical produce'
p2583
(lp2584
g25
asS'automatically terminate'
p2585
(lp2586
g41
asS'british'
p2587
(lp2588
g38
asS'interpreted age'
p2589
(lp2590
g38
asS'effectively excludes'
p2591
(lp2592
g7
ag8
asS'clipperton island'
p2593
(lp2594
g25
asS'original hayes\nresults'
p2595
(lp2596
g14
asS'generally adequate supplies ='
p2597
(lp2598
g25
asS'rubbishy common things--specially'
p2599
(lp2600
g11
asS'origin'
p2601
(lp2602
g38
asS'parastatal industry minister alfredo del mazo'
p2603
(lp2604
g4
asS'megaputer intelligence'
p2605
(lp2606
g30
asS'animal products =\ninclude pork'
p2607
(lp2608
g25
asS'proprietary data-mining software'
p2609
(lp2610
g30
asS'international atomic energy agency director-general hans blix'
p2611
(lp2612
g4
asS'@*\ninternational monetary fund'
p2613
(lp2614
g4
asS'distribute copies'
p2615
(lp2616
g7
ag41
ag8
asS'talk page'
p2617
(lp2618
g30
asS'temporarily'
p2619
(lp2620
g38
asS'written agreement'
p2621
(lp2622
g41
asS'directly'
p2623
(lp2624
g41
asS'graveyard\n\nforewarnings\n\ndisturbing muff\xc2\x92'
p2625
(lp2626
g11
asS'preferred form'
p2627
(lp2628
g41
asS'hard rock'
p2629
(lp2630
g38
asS'independent module'
p2631
(lp2632
g41
asS'raw version'
p2633
(lp2634
g14
asS'language independent automated learning'
p2635
(lp2636
g14
asS'academic community'
p2637
(lp2638
g30
asS'early south african economy'
p2639
(lp2640
g38
asS'phrase \xc2\x93project gutenberg\xc2\x94'
p2641
(lp2642
g11
asS'work written'
p2643
(lp2644
g41
asS'acquired'
p2645
(lp2646
g41
asS'2'
(lp2647
g7
ag8
asS'market research assessment tool'
p2648
(lp2649
g30
asS'[19]\nchromium[edit]\nchromium'
p2650
(lp2651
g38
asS'full\nproject gutenberg-tm license'
p2652
(lp2653
g11
asS'south africamining industry'
p2654
(lp2655
g38
asS'west'
p2656
(lp2657
g38
asS'machine =\nbuilding'
p2658
(lp2659
g25
asS'atlantic ocean'
p2660
(lp2661
g25
asS'mining'
p2662
(lp2663
g30
ag38
asS'forrester research'
p2664
(lp2665
g30
asS'assigned topics\ncategories'
p2666
(lp2667
g14
asS'caicos islands'
p2668
(lp2669
g25
asS'data mining software'
p2670
(lp2671
g30
asS'prior modifications'
p2672
(lp2673
g41
asS'australian dollar'
p2674
(lp2675
g4
asS'entire distribution'
p2676
(lp2677
g14
asS'copy'
p2678
(lp2679
g7
ag8
asS'holder'
p2680
(lp2681
g41
asS'month        = jul\n}\n\n@article{sparckjones76'
p2682
(lp2683
g14
asS'standard test collections'
p2684
(lp2685
g14
asS'court order'
p2686
(lp2687
g41
asS'permit linking proprietary applications'
p2688
(lp2689
g41
asS'}\n\n@inproceedings{lewis92e'
p2690
(lp2691
g14
asS'accordance'
p2692
(lp2693
g7
ag8
asS'data understanding'
p2694
(lp2695
g30
asS'}\n\n@inproceedings{lewis92d'
p2696
(lp2697
g14
asS'platinum mine workers'
p2698
(lp2699
g38
asS'@*\neconomic commission'
p2700
(lp2701
g4
asS'norfolk island'
p2702
(lp2703
g25
asS'[edit]\nafrican exploration mining'
p2704
(lp2705
g38
asS'main street roaring huzzah'
p2706
(lp2707
g11
asS'adb-africa\nadb-asia\naibd\naid\nanrpc\nasean\natpc\nbis\ncipec\ncomecon\nec\neca\necafe\nece\necla\necsc\necwa\nefta\neib\nemcf\nescap\neuratom\nfao\ngatt\ngcc\ngeplacea\niaea\niata\nicco\nico-coffee\nico-islam\nida\niea\niisi\nilo\nilzsg\nimco\nimf\ninro\nirsg\nisa\nitc\niwc-whale\niwc-wheat\niwcc\niws\niwto\nlafta\nmfa\noapec\noecd\nopec'
p2708
(lp2709
g274
asS'represents'
p2710
(lp2711
g38
asS'manual\nknowledge engineering'
p2712
(lp2713
g14
asS'{muc-3} corpus'
p2714
(lp2715
g14
asS'@*\nworld health organisation'
p2716
(lp2717
g4
asS'metal =\ngoods'
p2718
(lp2719
g25
asS'state power company'
p2720
(lp2721
g38
asS'final feather broke'
p2722
(lp2723
g11
asS'biggest diamond miner'
p2724
(lp2725
g38
asS'naked skin represented\nflesh-colored \xc2\x93tights\xc2\x94'
p2726
(lp2727
g11
asS'evidence stood firm'
p2728
(lp2729
g11
asS'metal =\nproducts'
p2730
(lp2731
g25
asS'trade director-general \n     arthur dunkel'
p2732
(lp2733
g4
asS'medium'
p2734
(lp2735
g41
asS'contributions set'
p2736
(lp2737
g7
ag8
asS'solomon =\nislands'
p2738
(lp2739
g25
asS'formatted text'
p2740
(lp2741
g14
asS'ever-present potential hazard'
p2742
(lp2743
g38
asS'contributor disclaims'
p2744
(lp2745
g7
ag8
asS'text categorization models'
p2746
(lp2747
g14
asS'data mining\necml-pkdd conference \xe2\x80\x93 european conference'
p2748
(lp2749
g30
asS'coal'
p2750
(lp2751
g38
asS'decision rules'
p2752
(lp2753
g30
ag14
asS'offer'
p2754
(lp2755
g7
ag41
ag8
asS'equipment'
p2756
(lp2757
g7
ag8
asS'database mining workstation'
p2758
(lp2759
g30
asS'small cottage industries'
p2760
(lp2761
g25
asS'responsibility'
p2762
(lp2763
g7
ag8
asS'federal tax identification number'
p2764
(lp2765
g11
asS'finance minister gunnar berge'
p2766
(lp2767
g4
asS'computer software'
p2768
(lp2769
g41
asS'mike\ntopliss'
p2770
(lp2771
g14
asS'avoid inconsistency'
p2772
(lp2773
g7
ag8
asS'prime minister harri holkeri'
p2774
(lp2775
g4
asS'consumer price index'
p2776
(lp2777
g4
asS'permit royalty-free redistribution'
p2778
(lp2779
g41
asS'koivisto'
p2780
(lp2781
g4
asS'protected =\nsector'
p2782
(lp2783
g25
asS'snug nooks carpeted'
p2784
(lp2785
g11
asS'big milum apple'
p2786
(lp2787
g11
asS'looked exceedingly improved'
p2788
(lp2789
g11
asS'america'
p2790
(lp2791
g7
ag8
asS'^ electricity crisis puts 6'
p2792
(lp2793
g38
asS'switches\nnotably diminished'
p2794
(lp2795
g11
asS'twenty studying scholars soothed'
p2796
(lp2797
g11
asS'largest consumers'
p2798
(lp2799
g38
asS'energy minister arne oeien'
p2800
(lp2801
g4
asS'sale'
p2802
(lp2803
g7
ag41
ag8
asS'idea/'
p2804
(lp2805
g999
asS'united states killed'
p2806
(lp2807
g30
asS'term data mining'
p2808
(lp2809
g30
asS'intelligent high-volume text processing'
p2810
(lp2811
g14
asS'information privacy legislation'
p2812
(lp2813
g30
asS'deputy prime minister'
p2814
(lp2815
g4
asS'laws'
p2816
(lp2817
g7
ag41
ag8
asS'operations'
p2818
(lp2819
g7
ag8
asS'@*\neuropean atomic energy community'
p2820
(lp2821
g4
asS'taylor & francis group'
p2822
(lp2823
g30
asS'cross industry standard process'
p2824
(lp2825
g30
asS'show'
p2826
(lp2827
g41
asS'date='
p2828
(lp2829
g38
asS'pursuant'
p2830
(lp2831
g41
asS'licenses granted'
p2832
(lp2833
g7
ag41
ag8
asS'ghastly stage-fright seized'
p2834
(lp2835
g11
asS'ventilating air circulated'
p2836
(lp2837
g38
asS'discovered'
p2838
(lp2839
g38
asS'full notice'
p2840
(lp2841
g41
asS'wide range'
p2842
(lp2843
g41
asS'contest validity'
p2844
(lp2845
g41
asS'copyrighted'
p2846
(lp2847
g7
ag41
ag8
asS'public domain print editions means'
p2848
(lp2849
g11
asS'palm  kernels'
p2850
(lp2851
g25
asS'juan de nova island'
p2852
(lp2853
g25
asS'/ 1+ occurrences'
p2854
(lp2855
g14
asS'primary research journal'
p2856
(lp2857
g30
asS'gold--bitter luck\n\nchapter xxvii'
p2858
(lp2859
g11
asS'hit south africa mines'
p2860
(lp2861
g38
asS'mubarak'
p2862
(lp2863
g4
asS'title'
p2864
(lp2865
g7
ag8
asS'structured stakeholder dialogue 2013'
p2866
(lp2867
g30
asS'text mining software'
p2868
(lp2869
g30
asS'machine\nlearning methods'
p2870
(lp2871
g14
asS'small offshore oil =\ndeposits'
p2872
(lp2873
g25
asS'yugoslav republic ='
p2874
(lp2875
g25
asS'physically performing source distribution'
p2876
(lp2877
g41
asS'tall\nsons speedily dressed'
p2878
(lp2879
g11
asS'22 files begins'
p2880
(lp2881
g14
asS'finance minister onno ruding'
p2882
(lp2883
g4
asS'machine building'
p2884
(lp2885
g25
asS'palm =\nproducts'
p2886
(lp2887
g25
asS'african rainbow minerals'
p2888
(lp2889
g38
asS'distributed project\ngutenberg-tm ebooks'
p2890
(lp2891
g11
asS'applicable laws'
p2892
(lp2893
g7
ag8
asS'joakin ruiz'
p2894
(lp2895
g38
asS'detect colicky symptoms'
p2896
(lp2897
g11
asS'patent claims'
p2898
(lp2899
g41
asS'produces bananas'
p2900
(lp2901
g25
asS'[17] diamond production rose'
p2902
(lp2903
g38
asS'deng xiaoping'
p2904
(lp2905
g4
asS'case including portions thereof'
p2906
(lp2907
g41
asS'small shipyards'
p2908
(lp2909
g25
asS'time\nintervals'
p2910
(lp2911
g14
asS'[edit]\nmain article'
p2912
(lp2913
g30
asS'central african =\nrepublic'
p2914
(lp2915
g25
asS'conjunction'
p2916
(lp2917
g7
ag8
asS'principal products'
p2918
(lp2919
g25
asS'common control'
p2920
(lp2921
g41
asS'latin america'
p2922
(lp2923
g4
asS'source file'
p2924
(lp2925
g41
asS'finally asked--dimly\ndreading'
p2926
(lp2927
g11
asS'indemnified contributor'
p2928
(lp2929
g7
ag8
asS'important part'
p2930
(lp2931
g38
asS'full project gutenberg-tm license'
p2932
(lp2933
g11
asS'versions'
p2934
(lp2935
g7
ag41
ag8
asS'dominant sector'
p2936
(lp2937
g25
asS'fresh-crowned hero fell'
p2938
(lp2939
g11
asS'slew poor guy'
p2940
(lp2941
g11
asS'ethics[edit]'
p2942
(lp2943
g30
asS'xml-based language developed'
p2944
(lp2945
g30
asS'target data set'
p2946
(lp2947
g30
asS'economy minister youssri wali'
p2948
(lp2949
g4
asS'fully  exploited'
p2950
(lp2951
g25
asS'south african nuclear energy'
p2952
(lp2953
g38
asS'user'
p2954
(lp2955
g41
asS'safe place tom examined'
p2956
(lp2957
g11
asS'end users'
p2958
(lp2959
g7
ag8
asS'additional details'
p2960
(lp2961
g14
asS'small-scale modern industries'
p2962
(lp2963
g25
asS'alley\ndoor closed softly'
p2964
(lp2965
g11
asS'total diamond output'
p2966
(lp2967
g38
asS'agricultural =\nproducts'
p2968
(lp2969
g25
asS'readme describes version 1'
p2970
(lp2971
g14
asS'animal feedstuffs'
p2972
(lp2973
g25
asS'refrigeration key'
p2974
(lp2975
g38
asS'food crops include =\nsorghum'
p2976
(lp2977
g25
asS'@end[itemize]\n\nussr'
p2978
(lp2979
g4
asS'offshore  banking'
p2980
(lp2981
g25
asS'fails'
p2982
(lp2983
g7
ag8
asS'subroutine library'
p2984
(lp2985
g41
asS'saint peter port'
p2986
(lp2987
g25
asS'sneeze\n\ncornered\n\nalarming discoveries\n\ntom'
p2988
(lp2989
g11
asS'european =\ncountries'
p2990
(lp2991
g25
asS'@*\ninternational air transport association'
p2992
(lp2993
g4
asS'extreme pressure'
p2994
(lp2995
g38
asS'3'
(lp2996
g7
ag8
asS'central bank governor jose luis machinea'
p2997
(lp2998
g4
asS'significantly contributing'
p2999
(lp3000
g38
asS'world nuclear association'
p3001
(lp3002
g38
asS'diamonds'
p3003
(lp3004
g38
asS'offshore banking'
p3005
(lp3006
g25
asS'import'
p3007
(lp3008
g7
ag8
asS'young doctor robinson'
p3009
(lp3010
g11
asS'program `gnomovision'
p3011
(lp3012
g41
asS'social media mining\nsurveillance capitalism\nweb scraping\nreferences[edit]\n^ jump'
p3013
(lp3014
g30
asS'ma 02111-1307 usa'
p3015
(lp3016
g41
asS'palladium mine production worldwide'
p3017
(lp3018
g38
asS'notice'
p3019
(lp3020
g41
asS'marketplace surveys\n10'
p3021
(lp3022
g30
asS'fisheries =\npotential'
p3023
(lp3024
g25
asS'modified program'
p3025
(lp3026
g41
asS'ty coon'
p3027
(lp3028
g41
asS'intellectual property rights'
p3029
(lp3030
g7
ag41
ag8
asS'monica cellio'
p3031
(lp3032
g14
asS'metal products'
p3033
(lp3034
g25
asS'research     \n                     lewis@research'
p3035
(lp3036
g14
asS'free programs'
p3037
(lp3038
g41
asS'named\nentities'
p3039
(lp3040
g14
asS'article'
p3041
(lp3042
g30
asS'whitespace structure'
p3043
(lp3044
g14
asS'originates'
p3045
(lp3046
g7
ag8
asS'fresh cut flowers'
p3047
(lp3048
g25
asS'non-exclusive'
p3049
(lp3050
g7
ag8
asS'background[edit]'
p3051
(lp3052
g30
asS'johnny\ntold jim hollis'
p3053
(lp3054
g11
asS'international sale'
p3055
(lp3056
g41
asS'national security agency'
p3057
(lp3058
g30
asS'patent claim'
p3059
(lp3060
g41
asS'including =\ncloth'
p3061
(lp3062
g25
asS'free software distribution system'
p3063
(lp3064
g41
asS'contract'
p3065
(lp3066
g7
ag8
asS'gold mining rate'
p3067
(lp3068
g38
asS'rights hereunder'
p3069
(lp3070
g41
asS'finance minister wang bingqian'
p3071
(lp3072
g4
asS'refined =\nproducts'
p3073
(lp3074
g25
asS'perceptible twinkle peeping'
p3075
(lp3076
g11
asS'government end users'
p3077
(lp3078
g41
asS'library statically'
p3079
(lp3080
g41
asS'interface definition files'
p3081
(lp3082
g41
asS'data\n[show]'
p3083
(lp3084
g30
asS'biggest palladium producers'
p3085
(lp3086
g38
asS'economy minister juan sourrouille'
p3087
(lp3088
g4
asS'/news/leaders/21600685-nigerias-suddenly-supersized-economy-indeed-wonder-so-are-its-still-huge\njump'
p3089
(lp3090
g38
asS'animal products'
p3091
(lp3092
g25
asS'learning'
p3093
(lp3094
g30
asS'data mining'
p3095
(lp3096
g30
asS'raised privacy concerns'
p3097
(lp3098
g30
asS'finance minister gustavo petricioli'
p3099
(lp3100
g4
asS'database management'
p3101
(lp3102
g30
asS'economy minister kostas simitis'
p3103
(lp3104
g4
asS'united states\n8'
p3105
(lp3106
g30
asS'guest editorial'
p3107
(lp3108
g14
asS'\xc2\x94--tom lionized\n\nchapter'
p3109
(lp3110
g11
asS'greenstone belts'
p3111
(lp3112
g38
asS'treasury minister guiliano amato'
p3113
(lp3114
g4
asS'data dredging'
p3115
(lp3116
g30
asS'nearby bushveld igneous complex'
p3117
(lp3118
g38
asS'poor huck stood abashed'
p3119
(lp3120
g11
asS'parties hereto'
p3121
(lp3122
g7
ag8
asS'license agreement'
p3123
(lp3124
g7
ag8
asS'combined'
p3125
(lp3126
g7
ag8
asS'upstreet \xc2\x91bout midnight'
p3127
(lp3128
g11
asS'usama fayyad launched'
p3129
(lp3130
g30
asS'digitisation project'
p3131
(lp3132
g30
asS'principal food  =\ncoconuts'
p3133
(lp3134
g25
asS'human\nbeings'
p3135
(lp3136
g14
asS'steal\nfurtive glances'
p3137
(lp3138
g11
asS'ha\xc2\x92nted house\n\ninjun joe'
p3139
(lp3140
g11
asS'gnu general public license'
p3141
(lp3142
g41
asS'offered'
p3143
(lp3144
g7
ag8
asS'clustered representations'
p3145
(lp3146
g14
asS'annual pacific-asia conference'
p3147
(lp3148
g30
asS'geological survey'
p3149
(lp3150
g38
asS'@end[itemize]\n\n\nfrance\n@begin[itemize]\n   president francois mitterrand'
p3151
(lp3152
g4
asS'lonmin bloodbath'
p3153
(lp3154
g38
asS'governor carlo ciampi'
p3155
(lp3156
g4
asS'case'
p3157
(lp3158
g7
ag41
ag8
asS'data mining provided'
p3159
(lp3160
g30
asS'essential part'
p3161
(lp3162
g41
asS'parties remain'
p3163
(lp3164
g41
asS'including contributions'
p3165
(lp3166
g7
ag8
asS'lonrho plc'
p3167
(lp3168
g4
asS'locally exploitable =\ncoal'
p3169
(lp3170
g25
asS'resulting litigation'
p3171
(lp3172
g7
ag8
asS'late steamer big missouri worked'
p3173
(lp3174
g11
asS'international trade'
p3175
(lp3176
g4
asS'plain simple stealing--'
p3177
(lp3178
g11
asS'statistician tyler viglen'
p3179
(lp3180
g30
asS'notice contained'
p3181
(lp3182
g41
asS'thousands rushed'
p3183
(lp3184
g38
asS'sinuous avenue holding'
p3185
(lp3186
g11
asS'deepwater harbors'
p3187
(lp3188
g25
asS'animal =\nproducts'
p3189
(lp3190
g25
asS'biotech business week'
p3191
(lp3192
g30
asS'steve weinstein'
p3193
(lp3194
g14
asS'net exporter'
p3195
(lp3196
g25
asS'jarvis island'
p3197
(lp3198
g25
asS'text filtering'
p3199
(lp3200
g14
asS'scenes re-enacted\n\nchapter ix'
p3201
(lp3202
g11
asS'geological survey estimated'
p3203
(lp3204
g38
asS'mantle sourced intrusions'
p3205
(lp3206
g38
asS'27 november 2007'
p3207
(lp3208
g38
asS'solemn situation--grave subjects introduced--injun joe\nexplains\n\nchapter'
p3209
(lp3210
g11
asS'documents removed'
p3211
(lp3212
g14
asS'participant'
p3213
(lp3214
g41
asS'knowledge discovery software'
p3215
(lp3216
g30
asS'author'
p3217
(lp3218
g41
asS'pay'
p3219
(lp3220
g7
ag8
asS'granted'
p3221
(lp3222
g41
asS'surveillance'
p3223
(lp3224
g30
asS'awful reg\xc2\x92lar'
p3225
(lp3226
g11
asS'close-buttoned blue cloth\nroundabout'
p3227
(lp3228
g11
asS'chapter xxxiv\n\nhuck'
p3229
(lp3230
g11
asS'information management special reports'
p3231
(lp3232
g30
asS'document'
p3233
(lp3234
g41
asS'privatisation  \n       edouard balladur'
p3235
(lp3236
g4
asS'trade minister alberto vera la rose'
p3237
(lp3238
g4
asS'gold[3]'
p3239
(lp3240
g38
asS'@*\nzurich stock exchange/bourse'
p3241
(lp3242
g4
asS'web search engine'
p3243
(lp3244
g30
asS'coir rope  bgfactory'
p3245
(lp3246
g25
asS'passion fruit products'
p3247
(lp3248
g25
asS'gregory piatetsky-shapiro coined'
p3249
(lp3250
g30
asS'data include bayes'
p3251
(lp3252
g30
asS'director'
p3253
(lp3254
g4
asS'violent confrontations occurred'
p3255
(lp3256
g38
asS'running'
p3257
(lp3258
g41
asS'net  exports'
p3259
(lp3260
g25
asS'mere aggregation'
p3261
(lp3262
g41
asS'steel institute'
p3263
(lp3264
g4
asS'initial license steward'
p3265
(lp3266
g41
asS'frequent unpredictability'
p3267
(lp3268
g38
asS'south africa'
p3269
(lp3270
g38
asS'food tropical =\nfruits'
p3271
(lp3272
g25
asS'central bank governor wim duisenberg'
p3273
(lp3274
g4
asS'costs'
p3275
(lp3276
g7
ag41
ag8
asS'economic planning agency eiichi nakao'
p3277
(lp3278
g4
asS'related terms data dredging'
p3279
(lp3280
g30
asS'talk \xc2\x91bout these-yer dead\npeople'
p3281
(lp3282
g11
asS'dead noonday heat'
p3283
(lp3284
g11
asS'modlewis\nsplit'
p3285
(lp3286
g14
asS'@*\nsecurities exchange'
p3287
(lp3288
g4
asS'constructing artificial flowers'
p3289
(lp3290
g11
asS'charms work till midnight'
p3291
(lp3292
g11
asS'analyzing unstructured content'
p3293
(lp3294
g30
asS'extensive natural gas =\nreserves'
p3295
(lp3296
g25
asS'second-largest reserves'
p3297
(lp3298
g38
asS'initial grant'
p3299
(lp3300
g41
asS'actions'
p3301
(lp3302
g41
asS'210 cu ft/'
p3303
(lp3304
g38
asS'small =\nshops producing handicraft items'
p3305
(lp3306
g25
asS'cease'
p3307
(lp3308
g7
ag8
asS'computer science department'
p3309
(lp3310
g14
asS'computer systems'
p3311
(lp3312
g14
asS'material terms'
p3313
(lp3314
g7
ag8
asS'omissions'
p3315
(lp3316
g7
ag8
asS'enterprise class text analytics solution'
p3317
(lp3318
g30
asS'announcement'
p3319
(lp3320
g41
asS'energy minister marcel masse'
p3321
(lp3322
g4
asS'miscellaneous manubgfactured =\nitems'
p3323
(lp3324
g25
asS'data mining companies'
p3325
(lp3326
g30
asS'data mining methods'
p3327
(lp3328
g30
asS'60 day period'
p3329
(lp3330
g41
asS'original licensor'
p3331
(lp3332
g41
asS'produces buses'
p3333
(lp3334
g25
asS'treasury secretary james baker'
p3335
(lp3336
g4
asS'coastal =\nclimate'
p3337
(lp3338
g25
asS'hide som\xc2\x92ers'
p3339
(lp3340
g11
asS'widow\n\nchapter xxx'
p3341
(lp3342
g11
asS'central bank governor jose tavares moreia'
p3343
(lp3344
g4
asS'4'
(lp3345
g7
ag8
asS'@*\nlondon metal exchange'
p3346
(lp3347
g4
asS'premier li peng'
p3348
(lp3349
g4
asS'written offer'
p3350
(lp3351
g41
asS'rolling mill =\nproducts'
p3352
(lp3353
g25
asS'central bank governor rusdu saracoglu'
p3354
(lp3355
g4
asS'end tag'
p3356
(lp3357
g14
asS'development\n    secretary-general jean-claude paye'
p3358
(lp3359
g4
asS'ongoing supply levels\njump'
p3360
(lp3361
g38
asS'software distributed'
p3362
(lp3363
g7
ag41
ag8
asS'data warehouse'
p3364
(lp3365
g30
asS'industrial  =\nproducts'
p3366
(lp3367
g25
asS'woolly comet moving'
p3368
(lp3369
g11
asS'beneficial ownership'
p3370
(lp3371
g41
asS'generic text processing task'
p3372
(lp3373
g14
asS'opentext\xe2\x84\xa2 big data analytics'
p3374
(lp3375
g30
asS'commercial item'
p3376
(lp3377
g41
asS'negro minstrel shows'
p3378
(lp3379
g11
asS'recipient'
p3380
(lp3381
g7
ag41
ag8
asS'drawing protests'
p3382
(lp3383
g38
asS'video \xe2\x80\x93 originally developed'
p3384
(lp3385
g30
asS'january 2013\njump'
p3386
(lp3387
g38
asS'net food importer'
p3388
(lp3389
g25
asS'commercial distribution\n\ncommercial distributors'
p3390
(lp3391
g7
asS'generally small family businesses ='
p3392
(lp3393
g25
asS'yugoslav =\nrepublic'
p3394
(lp3395
g25
asS'remaining hundred yards'
p3396
(lp3397
g11
asS'ieee conference'
p3398
(lp3399
g14
asS'amy chatted happily'
p3400
(lp3401
g11
asS'unrealistically high'
p3402
(lp3403
g14
asS'black velvet doublet'
p3404
(lp3405
g11
asS'grants'
p3406
(lp3407
g41
asS'financial mail'
p3408
(lp3409
g38
asS'main pg search facility'
p3410
(lp3411
g11
asS'tasman pacific minerals'
p3412
(lp3413
g38
asS'vegetable crops'
p3414
(lp3415
g25
asS'project gutenberg literary archive foundation'
p3416
(lp3417
g11
asS'2002 mineral industry report'
p3418
(lp3419
g38
asS'semifinished metal products'
p3420
(lp3421
g25
asS'\xc2\x93barlow\xc2\x94 knife worth twelve'
p3422
(lp3423
g11
asS'unctad'
p3424
(lp3425
g274
asS'trade negotiations clayton yeutter'
p3426
(lp3427
g4
asS'state bank board chairman viktor dementsev'
p3428
(lp3429
g4
asS'information retrieval'
p3430
(lp3431
g14
asS'processed food items'
p3432
(lp3433
g25
asS'james hacker'
p3434
(lp3435
g41
asS'missing information'
p3436
(lp3437
g30
asS'prime minister willi stoph'
p3438
(lp3439
g4
asS'rocks'
p3440
(lp3441
g38
asS'lower timber output'
p3442
(lp3443
g25
asS'provided'
p3444
(lp3445
g7
ag8
ag38
asS'generosity--aunt polly weakens\n\nchapter xiii'
p3446
(lp3447
g11
asS'encyclop\xc3\xa6dia britannica'
p3448
(lp3449
g30
asS'blue lights slipping'
p3450
(lp3451
g11
asS'extensive atomic =\ndevelopment'
p3452
(lp3453
g25
asS'project\ngutenberg etext'
p3454
(lp3455
g25
asS'machine  =\ntools'
p3456
(lp3457
g25
asS'national\n          treasury mrs chen muhua'
p3458
(lp3459
g4
asS'sid lay nightly watching'
p3460
(lp3461
g11
asS'american statistician[43]\ngoebel & gruenwald 1999'
p3462
(lp3463
g30
asS'harvard business review'
p3464
(lp3465
g30
asS'consumer =\nproducts'
p3466
(lp3467
g25
asS'2017-01-08'
p3468
(lp3469
g38
asS'programming language'
p3470
(lp3471
g30
asS'anglo gold ashanti'
p3472
(lp3473
g38
asS'independent modules'
p3474
(lp3475
g41
asS'business'
p3476
(lp3477
g30
asS'topics field'
p3478
(lp3479
g14
asS']\n@begin[itemize]\nargentina\n@begin[itemize]\n   president raul alfonsin'
p3480
(lp3481
g4
asS'prime minister karoly grosz'
p3482
(lp3483
g4
asS'railroad  rolling =\nstock'
p3484
(lp3485
g25
asS'\xd7\x99\xd7\x99\xd6\xb4\xd7\x93\xd7\x99\xd7\xa9\n\xe4\xb8\xad\xe6\x96\x87\nedit links'
p3486
(lp3487
g30
asS'gold mining'
p3488
(lp3489
g38
asS'_wouldn\xc2\x92t_ lie'
p3490
(lp3491
g11
asS'multilingual text'
p3492
(lp3493
g30
asS'pertinent obligations'
p3494
(lp3495
g41
asS'$588 billion usd gross domestic product'
p3496
(lp3497
g38
asS'license represents'
p3498
(lp3499
g41
asS'navassa island'
p3500
(lp3501
g25
asS'@*\nmontreal stock exchange'
p3502
(lp3503
g4
asS'patent'
p3504
(lp3505
g7
ag41
ag8
asS'prime minister giovanni goria'
p3506
(lp3507
g4
asS'forestry minister filippo maria pandolfi'
p3508
(lp3509
g4
asS'@*\nlondon international financial futures exchange'
p3510
(lp3511
g4
asS'million metric =\ntons ranks india'
p3512
(lp3513
g25
asS'industrial applications'
p3514
(lp3515
g38
asS'addition'
p3516
(lp3517
g7
ag8
asS'practicable'
p3518
(lp3519
g7
ag8
asS'prime minister andreas papandreou'
p3520
(lp3521
g4
asS'act'
p3522
(lp3523
g41
asS'work\n\nchapter xii'
p3524
(lp3525
g11
asS'data mining tool provided'
p3526
(lp3527
g30
asS'machine learning software'
p3528
(lp3529
g30
asS'minister rilwanu lukman'
p3530
(lp3531
g4
asS'covers prediction models'
p3532
(lp3533
g30
asS'free program'
p3534
(lp3535
g41
asS'@*\namsterdam stock exchange/bourse'
p3536
(lp3537
g4
asS'trademark'
p3538
(lp3539
g41
asS'agricultural machinery  =\nassembly'
p3540
(lp3541
g25
asS'copies'
p3542
(lp3543
g41
asS'united states'
p3544
(lp3545
g7
ag25
ag8
asS'early 20th century'
p3546
(lp3547
g38
asS'extracting information'
p3548
(lp3549
g30
asS'william cohen'
p3550
(lp3551
g14
asS'incident caused south african president thabo mbeki'
p3552
(lp3553
g38
asS'howland island'
p3554
(lp3555
g25
asS'cut power supplies'
p3556
(lp3557
g38
asS'data mining experiments'
p3558
(lp3559
g30
asS'court costs'
p3560
(lp3561
g41
asS'agricultural =\nproduction'
p3562
(lp3563
g25
asS'delicious fancies time quickly glides'
p3564
(lp3565
g11
asS'area'
p3566
(lp3567
g38
asS'management sciences'
p3568
(lp3569
g30
asS'sgml dtd'
p3570
(lp3571
g14
asS'forest =\nlands'
p3572
(lp3573
g25
asS'half envied jimmy\nhodges'
p3574
(lp3575
g11
asS'low'
p3576
(lp3577
g38
asS'@end[itemize]\n\n\nluxembourg\n@begin[itemize]\n   prime minister'
p3578
(lp3579
g4
asS'spec\xc2\x92 mars tom gwine'
p3580
(lp3581
g11
asS'kdnuggets methodology poll\njump'
p3582
(lp3583
g30
asS'assumes'
p3584
(lp3585
g7
ag8
asS'annex areas'
p3586
(lp3587
g38
asS'10645/3672 split'
p3588
(lp3589
g14
asS'central bank governor arifin siregar'
p3590
(lp3591
g4
asS'complete'
p3592
(lp3593
g41
asS'verbatim'
p3594
(lp3595
g41
asS'consistent application'
p3596
(lp3597
g41
asS'estoppel'
p3598
(lp3599
g7
ag8
asS'google book settlement'
p3600
(lp3601
g30
asS'executable versions'
p3602
(lp3603
g41
asS'sgml tools'
p3604
(lp3605
g14
asS'large data sets involving methods'
p3606
(lp3607
g30
asS'additional terms'
p3608
(lp3609
g41
ag38
asS'laws regulating\ncharities'
p3610
(lp3611
g11
asS'results\nincomparable'
p3612
(lp3613
g14
asS'licensed free'
p3614
(lp3615
g41
asS'director gbnewby@pglaf'
p3616
(lp3617
g11
asS'small deposits'
p3618
(lp3619
g25
asS'fred damerau'
p3620
(lp3621
g14
asS'malaysian ringitt'
p3622
(lp3623
g4
asS'[10][11]\ncoal[edit]\n\nsouth africa coal production'
p3624
(lp3625
g38
asS'retrieved 2016-08-04'
p3626
(lp3627
g38
asS'bassas da india'
p3628
(lp3629
g25
asS'applicable law'
p3630
(lp3631
g7
ag41
ag8
asS'training/test divisions'
p3632
(lp3633
g14
asS'readme file'
p3634
(lp3635
g14
asS'construc=\ntion materials'
p3636
(lp3637
g25
asS'negligible mineral =\nresources'
p3638
(lp3639
g25
asS'licensees extend'
p3640
(lp3641
g41
asS'site'
p3642
(lp3643
g38
asS'addition* analyze subsets'
p3644
(lp3645
g14
asS'chapter xxxii\n\ntuesday afternoon'
p3646
(lp3647
g11
asS'refined =\nsugar'
p3648
(lp3649
g25
asS'contributors'
p3650
(lp3651
g7
ag8
asS'master\n\nvain pleading\n\ntail piece'
p3652
(lp3653
g11
asS'advanced analytics\necdm conference \xe2\x80\x93 european conference'
p3654
(lp3655
g30
asS'general'
p3656
(lp3657
g7
ag41
ag8
asS'energy secretary cecil parkinson'
p3658
(lp3659
g4
asS'machine learning forensics'
p3660
(lp3661
g30
asS'governed'
p3662
(lp3663
g7
ag8
asS'file'
p3664
(lp3665
g41
asS'economy minister philippe maystadt'
p3666
(lp3667
g4
asS'shortages include fats'
p3668
(lp3669
g25
asS'field badly worsted'
p3670
(lp3671
g11
asS'agriculture minister john wise'
p3672
(lp3673
g4
asS'history & acknowledgements'
p3674
(lp3675
g14
asS'@end[itemize]\n\n\nunited kingdom\n@begin[itemize]\n   prime minister margaret thatcher'
p3676
(lp3677
g4
asS'higher geothermal gradient'
p3678
(lp3679
g38
asS'wide support'
p3680
(lp3681
g30
asS'coral sea islands'
p3682
(lp3683
g25
asS'brown coal =\nmining'
p3684
(lp3685
g25
asS'=\ndwindling natural gas'
p3686
(lp3687
g25
asS'bond corp'
p3688
(lp3689
g4
asS'republic attempted'
p3690
(lp3691
g38
asS'program proprietary'
p3692
(lp3693
g41
asS'receive source code'
p3694
(lp3695
g41
asS'additional 78 miners'
p3696
(lp3697
g38
asS'indemnify'
p3698
(lp3699
g7
ag8
asS'state courts'
p3700
(lp3701
g41
asS'economy minister martin bangemann'
p3702
(lp3703
g4
asS'time'
p3704
(lp3705
g7
ag8
asS'security surrounding access'
p3706
(lp3707
g30
asS'deepwater ports'
p3708
(lp3709
g25
asS'includes'
p3710
(lp3711
g7
ag41
ag8
asS'@*\nstockholm stock exchange/bourse'
p3712
(lp3713
g4
asS'wiley interdisciplinary reviews'
p3714
(lp3715
g30
asS'forest land'
p3716
(lp3717
g25
asS'included'
p3718
(lp3719
g7
ag41
ag8
asS'industry group'
p3720
(lp3721
g38
asS'month = jun'
p3722
(lp3723
g14
asS'haunted house--sleepy ghosts--'
p3724
(lp3725
g11
asS'@*\neuropean community'
p3726
(lp3727
g4
asS'**corporate codes'
p3728
(lp3729
g4
asS'large share'
p3730
(lp3731
g25
asS'company information'
p3732
(lp3733
g14
asS'international settlements'
p3734
(lp3735
g4
asS'mining accidents caused 70'
p3736
(lp3737
g38
asS'consumer  durables'
p3738
(lp3739
g25
asS'data mining & analysis'
p3740
(lp3741
g30
asS'[28]\nworking conditions[edit]\nconditions'
p3742
(lp3743
g38
asS'wayback machine'
p3744
(lp3745
g30
asS'computer failure'
p3746
(lp3747
g41
asS'natural language workshop'
p3748
(lp3749
g14
asS'east  european countries'
p3750
(lp3751
g25
asS'cotton piece goods'
p3752
(lp3753
g25
asS'original'
p3754
(lp3755
g41
asS'minister'
p3756
(lp3757
g4
asS'@*\nsingapore stock exchange'
p3758
(lp3759
g4
asS'work stoppage'
p3760
(lp3761
g41
asS'examples include'
p3762
(lp3763
g14
asS'central bank governor dimitris halikias'
p3764
(lp3765
g4
asS'lewis\n3-dec-96'
p3766
(lp3767
g4
asS'industry minister hajime tamura'
p3768
(lp3769
g4
asS'caused'
p3770
(lp3771
g7
ag8
asS'text categorization'
p3772
(lp3773
g14
asS'small numbers'
p3774
(lp3775
g25
asS'project\ngutenberg-tm work'
p3776
(lp3777
g11
asS'data management aspects'
p3778
(lp3779
g30
asS'expressly set'
p3780
(lp3781
g7
ag8
asS'@end[itemize]\n\n\nsaudi arabia\n@begin[itemize]\n   head'
p3782
(lp3783
g4
asS'\xc2\x93becuz thunder--\xc2\x94\n\n\xc2\x93hark'
p3784
(lp3785
g11
asS'muffled boom\ntroubled'
p3786
(lp3787
g11
asS'additional contact information'
p3788
(lp3789
g11
asS'major deposits'
p3790
(lp3791
g25
asS'claim rights'
p3792
(lp3793
g41
asS'young detectives\n\nchapter xxviii'
p3794
(lp3795
g11
asS'cross-validation\nprocedures'
p3796
(lp3797
g14
asS'retrieved 2007-11-27'
p3798
(lp3799
g38
asS'machine  tools'
p3800
(lp3801
g25
asS'including'
p3802
(lp3803
g7
ag41
ag8
ag38
asS'pure data'
p3804
(lp3805
g30
asS'program'
p3806
(lp3807
g7
ag8
asS'source code form'
p3808
(lp3809
g7
ag41
ag8
asS'mother hopkins told'
p3810
(lp3811
g11
asS'revealing thought\nflashed'
p3812
(lp3813
g11
asS'south africa inof'
p3814
(lp3815
g38
asS'gem stones'
p3816
(lp3817
g38
asS'small-scale consumer goods'
p3818
(lp3819
g25
asS'publicly perform'
p3820
(lp3821
g7
ag8
asS'arable land'
p3822
(lp3823
g25
asS'infringement'
p3824
(lp3825
g7
ag8
asS'gold resources'
p3826
(lp3827
g38
asS'initial contributor'
p3828
(lp3829
g7
ag8
asS'feature\nfi'
p3830
(lp3831
g14
asS'reliable statistical inferences'
p3832
(lp3833
g30
asS'south africa\n[show]'
p3834
(lp3835
g38
asS'experiments reported'
p3836
(lp3837
g14
asS'medium customarily'
p3838
(lp3839
g7
ag41
ag8
asS'puzzled amazement awoke'
p3840
(lp3841
g11
asS'project gutenberg-tm\nconcept'
p3842
(lp3843
g11
asS'article ends'
p3844
(lp3845
g14
asS'state bank president horst kaminsky'
p3846
(lp3847
g4
asS'condition'
p3848
(lp3849
g7
ag8
asS'ideal situation'
p3850
(lp3851
g14
asS'participant software'
p3852
(lp3853
g41
asS'regression \xe2\x80\x93 attempts'
p3854
(lp3855
g30
asS'forestry resources extensively  =\nexploited'
p3856
(lp3857
g25
asS'database mining'
p3858
(lp3859
g30
asS'temporal structure'
p3860
(lp3861
g14
asS'khomeini'
p3862
(lp3863
g4
asS'=\nmediterranean climate permits'
p3864
(lp3865
g25
asS'recipient institutes patent litigation'
p3866
(lp3867
g7
ag8
asS'figures 2006\njump'
p3868
(lp3869
g38
asS'electric power'
p3870
(lp3871
g25
asS'energy minister abel salinas'
p3872
(lp3873
g4
asS'training\nset'
p3874
(lp3875
g14
asS'industrial materials'
p3876
(lp3877
g25
asS'meagre latin class recited'
p3878
(lp3879
g11
asS'corrugated  cardboard boxes'
p3880
(lp3881
g25
asS'data =\nprocessing equipment'
p3882
(lp3883
g25
asS'@end[itemize]\n\negypt\n@begin[itemize]\n   president hosni mubarak'
p3884
(lp3885
g4
asS'lua programming language'
p3886
(lp3887
g30
asS'licenses granted hereunder'
p3888
(lp3889
g7
ag8
asS'agricultural products'
p3890
(lp3891
g25
asS'world leader'
p3892
(lp3893
g38
asS'bruce\ncroft'
p3894
(lp3895
g14
asS'anc secretary-general gwede mantashe announced'
p3896
(lp3897
g38
asS'concept drift tool'
p3898
(lp3899
g30
asS'predictive data mining'
p3900
(lp3901
g30
asS'classification \xe2\x80\x93'
p3902
(lp3903
g30
asS'rights set'
p3904
(lp3905
g41
asS'176                 175\n  people                        269                 267\n\n    total                       540                 537\n    total stated'
p3906
(lp3907
g4
asS'young man finally blurted'
p3908
(lp3909
g11
asS'south sandwich =\nislands'
p3910
(lp3911
g25
asS'temperate-zone =\ncrops'
p3912
(lp3913
g25
asS'commercial damages'
p3914
(lp3915
g41
asS'section'
p3916
(lp3917
g7
ag8
asS'java programming language'
p3918
(lp3919
g30
asS'fatalities'
p3920
(lp3921
g38
asS'license document'
p3922
(lp3923
g41
asS'large data sets'
p3924
(lp3925
g30
asS'automated data processing'
p3926
(lp3927
g30
asS'version'
p3928
(lp3929
g7
ag41
ag8
asS'invalid people mancera'
p3930
(lp3931
g14
asS'international bond dealers'
p3932
(lp3933
g4
asS'public'
p3934
(lp3935
g41
asS'[24] sibayane gold'
p3936
(lp3937
g38
asS'sstd symposium \xe2\x80\x93 symposium'
p3938
(lp3939
g30
asS'places categories'
p3940
(lp3941
g14
asS'<exchanges>'
p3942
(lp3943
g14
asS'involves database'
p3944
(lp3945
g30
asS'project gutenberg ebook tom sawyer ***\n\nproduced'
p3946
(lp3947
g11
asS'modify'
p3948
(lp3949
g7
ag8
asS'finance minister michael wilson'
p3950
(lp3951
g4
asS'doctype lewis system'
p3952
(lp3953
g14
asS'provider violates fair information practices'
p3954
(lp3955
g30
asS'patent applicable'
p3956
(lp3957
g8
asS'mulroney'
p3958
(lp3959
g4
asS'bruce croft received'
p3960
(lp3961
g4
asS'initial developer'
p3962
(lp3963
g41
asS'}\n\n@inproceedings{lewis91e'
p3964
(lp3965
g14
asS'jury trial'
p3966
(lp3967
g7
ag8
asS'subsequently acquired'
p3968
(lp3969
g41
asS'ground dominated'
p3970
(lp3971
g38
asS'addresses government rights'
p3972
(lp3973
g41
asS'pinch-bug\n\nsid\n\ndentistry\n\nhuckleberry finn\n\nmother hopkins\n\nresult'
p3974
(lp3975
g11
asS'northern mariana islands'
p3976
(lp3977
g25
asS'caribbean sugar exporting countries]'
p3978
(lp3979
g4
asS'data pre-processing'
p3980
(lp3981
g30
asS'losses'
p3982
(lp3983
g7
ag41
ag8
asS'important =\nsector'
p3984
(lp3985
g25
asS'infringe'
p3986
(lp3987
g7
ag8
asS'prior'
p3988
(lp3989
g41
asS'finance secretary mario brodersohn'
p3990
(lp3991
g4
asS'informs licensees'
p3992
(lp3993
g7
ag8
asS'english\n\ncharacter set encoding'
p3994
(lp3995
g11
asS'action'
p3996
(lp3997
g7
ag8
asS'large net =\nimporter'
p3998
(lp3999
g25
asS'crops =\ninclude coffee'
p4000
(lp4001
g25
asS'required notices'
p4002
(lp4003
g41
asS'ribbon-decked young heart-breakers'
p4004
(lp4005
g11
asS'lubbers'
p4006
(lp4007
g4
asS'vague figures approached'
p4008
(lp4009
g11
asS'deadliest incident'
p4010
(lp4011
g38
asS'africa'
p4012
(lp4013
g4
ag38
asS'thatcher'
p4014
(lp4015
g4
asS'central bank chairman jonas'
p4016
(lp4017
g4
asS'sets explicitly includes'
p4018
(lp4019
g14
asS'entity based'
p4020
(lp4021
g7
ag8
asS'dominican =\nrepublic'
p4022
(lp4023
g25
asS'heating oil/gas oil'
p4024
(lp4025
g4
asS'retrieved 2008-06-11'
p4026
(lp4027
g38
asS'agricultural land'
p4028
(lp4029
g25
asS'data engineering'
p4030
(lp4031
g30
asS'chapter xxii\n\ntom joined'
p4032
(lp4033
g11
asS'documents defined'
p4034
(lp4035
g14
asS'executable'
p4036
(lp4037
g41
asS'state oil company'
p4038
(lp4039
g4
asS'reasonable manner'
p4040
(lp4041
g7
ag41
ag8
asS'*text categorization*'
p4042
(lp4043
g14
asS'@begin[itemize]\n   president andrei gromyko'
p4044
(lp4045
g4
asS'[13] palladium'
p4046
(lp4047
g38
asS'category fields'
p4048
(lp4049
g14
asS'czech =\nrepublic'
p4050
(lp4051
g25
asS'6'
(lp4052
g7
ag8
asS'@*\nnational association'
p4053
(lp4054
g4
asS'shackly brick store'
p4055
(lp4056
g11
asS'tasman rsa'
p4057
(lp4058
g38
asS'explicit specifications'
p4059
(lp4060
g14
asS'diamond'
p4061
(lp4062
g38
asS'execute classification analyses'
p4063
(lp4064
g30
asS'platinum group metals'
p4065
(lp4066
g25
ag38
asS'@*\ninternational iron'
p4067
(lp4068
g4
asS'@end[itemize]\n\neuropean community commission\n@begin[itemize]\n   president jacques delors'
p4069
(lp4070
g4
asS'kimberley diamond strike'
p4071
(lp4072
g38
asS'isbn 978-0-521-83657-9\nguo'
p4073
(lp4074
g30
asS'challenging\nproperties'
p4075
(lp4076
g14
asS'reuters data'
p4077
(lp4078
g14
asS'=\ncentral europe'
p4079
(lp4080
g25
asS'advanced analytics technology'
p4081
(lp4082
g30
asS'cereal production'
p4083
(lp4084
g25
asS'prime minister charles haughey'
p4085
(lp4086
g4
asS'wore\ngreen goggles'
p4087
(lp4088
g11
asS'granted tax exempt status'
p4089
(lp4090
g11
asS'genetic algorithms'
p4091
(lp4092
g30
asS'counterclaim'
p4093
(lp4094
g7
ag8
asS'chicken-hearted home-sickness\nclinging'
p4095
(lp4096
g11
asS'agriculture secretary richard lyng'
p4097
(lp4098
g4
asS'search results clustering framework'
p4099
(lp4100
g30
asS'gathering statistical information'
p4101
(lp4102
g14
asS'light  iron =\nwork'
p4103
(lp4104
g25
asS'microsoft analysis services'
p4105
(lp4106
g30
asS'data management/database conferences'
p4107
(lp4108
g30
asS'project gutenberg-tm collection'
p4109
(lp4110
g11
asS'tom-aunt polly decides'
p4111
(lp4112
g11
asS'commercial distribution \n\ncommercial distributors'
p4113
(lp4114
g8
asS'exploring expedition--trouble commences--lost'
p4115
(lp4116
g11
asS'construct=\nion materials'
p4117
(lp4118
g25
asS'martens'
p4119
(lp4120
g4
asS'wikipedia\ncommunity portal\nrecent'
p4121
(lp4122
g30
ag38
asS'gardens provide =\nvegetables'
p4123
(lp4124
g25
asS'jeff told johnny baker'
p4125
(lp4126
g11
asS'appropriately publish'
p4127
(lp4128
g41
asS'accomplish ten thousand years'
p4129
(lp4130
g11
asS'industry secretary lord young'
p4131
(lp4132
g4
asS'multiple computing nodes'
p4133
(lp4134
g30
asS'accept'
p4135
(lp4136
g7
ag8
asS'states'
p4137
(lp4138
g7
ag8
asS'rock hoisting shaft'
p4139
(lp4140
g38
asS'arab petroleum exporting countries'
p4141
(lp4142
g4
asS'data mining tools'
p4143
(lp4144
g30
asS'massive oaken door stood\nunbarred'
p4145
(lp4146
g11
asS'pacific ocean'
p4147
(lp4148
g25
asS'duly cautious reply'
p4149
(lp4150
g11
asS'information'
p4151
(lp4152
g41
asS'implied warranties'
p4153
(lp4154
g7
ag41
ag8
asS'feature tuples'
p4155
(lp4156
g14
asS'small local consumer goods'
p4157
(lp4158
g25
asS'deputy minister'
p4159
(lp4160
g4
asS'acts'
p4161
(lp4162
g7
ag8
asS'northern district'
p4163
(lp4164
g41
asS'responsibilities'
p4165
(lp4166
g7
ag8
asS'mental acrobatics--attending sunday--school--'
p4167
(lp4168
g11
asS'agreement steward reserves'
p4169
(lp4170
g7
ag8
asS'perfectly\nround white things'
p4171
(lp4172
g11
asS'balefully interesting object'
p4173
(lp4174
g11
asS'common public license'
p4175
(lp4176
g8
asS'kdd international conference'
p4177
(lp4178
g30
asS'mining companies misrepresenting'
p4179
(lp4180
g38
asS'prevailing juvenile\nsuperstition'
p4181
(lp4182
g11
asS'computer science dept'
p4183
(lp4184
g14
asS'reg\xc2\x92lar ripper'
p4185
(lp4186
g11
asS'founding chairman'
p4187
(lp4188
g38
asS'contributor version'
p4189
(lp4190
g41
asS'intended'
p4191
(lp4192
g7
ag8
asS'automated production =\nsystems'
p4193
(lp4194
g25
asS'{van rijsbergen}'
p4195
(lp4196
g14
asS'project gutenberg ebook'
p4197
(lp4198
g11
asS'@end[itemize]\n\ntaiwan\n@begin[itemize]\n   president lee teng-hui'
p4199
(lp4200
g4
asS'[39][40]\n2012 lonmin strike[edit]'
p4201
(lp4202
g38
asS'agriculture minister carlos dominguez'
p4203
(lp4204
g4
asS'3 iron-ore supplier'
p4205
(lp4206
g38
asS'document analysis'
p4207
(lp4208
g14
asS'including correction'
p4209
(lp4210
g14
asS'10 times estimate'
p4211
(lp4212
g38
asS'computers\nincluding obsolete'
p4213
(lp4214
g11
asS'previous levels'
p4215
(lp4216
g38
asS'excluding licenses granted'
p4217
(lp4218
g41
asS'land area suitable'
p4219
(lp4220
g25
asS'ibn abdulaziz'
p4221
(lp4222
g4
asS'process uranium'
p4223
(lp4224
g38
asS'previous\nresearch'
p4225
(lp4226
g14
asS'central african  =\nrepublic'
p4227
(lp4228
g25
asS'additional tags occur'
p4229
(lp4230
g14
asS'village paper\npublished biographical sketches'
p4231
(lp4232
g11
asS'knowledge discovery\ndsaa conference \xe2\x80\x93 ieee international conference'
p4233
(lp4234
g30
asS'=\nfinancial activities'
p4235
(lp4236
g25
asS'aunt polly stood surprised'
p4237
(lp4238
g11
asS'retrieval'
p4239
(lp4240
g14
asS'complete source code means'
p4241
(lp4242
g41
asS'secretary-general kenneth dadzie'
p4243
(lp4244
g4
asS'made generous contributions'
p4245
(lp4246
g41
asS'document\nbelonged'
p4247
(lp4248
g14
asS'category labels'
p4249
(lp4250
g14
asS'advised'
p4251
(lp4252
g7
ag8
asS'collected data'
p4253
(lp4254
g30
asS'port moresby'
p4255
(lp4256
g25
asS'held'
p4257
(lp4258
g41
asS'proce=\nssed copper'
p4259
(lp4260
g25
asS'european commission'
p4261
(lp4262
g30
asS'south african national union'
p4263
(lp4264
g38
asS'finance minister robert chien'
p4265
(lp4266
g4
asS'el=\nectrical equipment'
p4267
(lp4268
g25
asS'technical =\nservices'
p4269
(lp4270
g25
asS'test collection'
p4271
(lp4272
g14
asS'feature\nsets'
p4273
(lp4274
g14
asS'camp\n\nchapter xvi'
p4275
(lp4276
g11
asS'original hayes experiments'
p4277
(lp4278
g14
asS'anomaly detection'
p4279
(lp4280
g30
asS'chapter viii\n\ntom dodged'
p4281
(lp4282
g11
asS'annual fish catch averages'
p4283
(lp4284
g25
asS'manubgfactured  goods'
p4285
(lp4286
g25
asS'files\ndescribing'
p4287
(lp4288
g14
asS'parts'
p4289
(lp4290
g41
asS'categories   number'
p4291
(lp4292
g14
asS'important economic  =\nactivity'
p4293
(lp4294
g25
asS'industry represents 18%'
p4295
(lp4296
g38
asS'small amounts'
p4297
(lp4298
g25
asS'identification number'
p4299
(lp4300
g14
asS'europe[edit]\neurope'
p4301
(lp4302
g30
asS'ventilation requirements'
p4303
(lp4304
g38
asS'principal  =\nturnips'
p4305
(lp4306
g25
asS'alter'
p4307
(lp4308
g7
ag8
asS'data mining algorithms occur'
p4309
(lp4310
g30
asS'recipient relating'
p4311
(lp4312
g7
ag8
asS'widow douglas put huck\xc2\x92'
p4313
(lp4314
g11
asS'finance minister kjell-olof feldt'
p4315
(lp4316
g4
asS'pleasant climate =\nfosters tourism'
p4317
(lp4318
g25
asS'symmetrical general effect'
p4319
(lp4320
g11
asS'including documentation carefully spelling'
p4321
(lp4322
g14
asS'framework'
p4323
(lp4324
g8
asS'party'
p4325
(lp4326
g7
ag41
ag8
asS'miscellaneous =\nmanubgfactured articles'
p4327
(lp4328
g25
asS'linking'
p4329
(lp4330
g41
asS'@end[itemize]\n\niran\n@begin[itemize]\n   revolutionary leader ayatollah ruhollah khomeini'
p4331
(lp4332
g4
asS'association'
p4333
(lp4334
g30
asS'project gutenberg-tm concept'
p4335
(lp4336
g11
asS'central america'
p4337
(lp4338
g25
asS'content-based indexing'
p4339
(lp4340
g14
asS'performance obtained'
p4341
(lp4342
g14
asS'corn \xc2\x93pone\xc2\x94 stock'
p4343
(lp4344
g11
asS'hayes testset'
p4345
(lp4346
g14
asS'dmoz\ndata mining tool vendors'
p4347
(lp4348
g30
asS'sixth file'
p4349
(lp4350
g14
asS'jealous--black revenge\n\nchapter xix'
p4351
(lp4352
g11
asS'technical report 91--93'
p4353
(lp4354
g14
asS'text\ncategorization'
p4355
(lp4356
g14
asS'party modifications'
p4357
(lp4358
g41
asS'claims brought'
p4359
(lp4360
g7
ag8
asS'software exchange'
p4361
(lp4362
g7
ag41
ag8
asS'web data mining'
p4363
(lp4364
g30
asS'chemical structure miner'
p4365
(lp4366
g30
asS'energy'
p4367
(lp4368
g38
asS'hard'
p4369
(lp4370
g38
asS'legal theory'
p4371
(lp4372
g41
asS'mine owned'
p4373
(lp4374
g38
asS'worm-eaten boards staggered'
p4375
(lp4376
g11
asS'invariably heard distressing\nnews--'
p4377
(lp4378
g11
asS'family educational rights'
p4379
(lp4380
g30
asS'saudi arabian riyal'
p4381
(lp4382
g4
asS'clustering \xe2\x80\x93'
p4383
(lp4384
g30
asS'researchers attempted'
p4385
(lp4386
g14
asS'domestic security'
p4387
(lp4388
g30
asS'mining weekly online'
p4389
(lp4390
g38
asS'publish'
p4391
(lp4392
g7
ag41
ag8
asS'research'
p4393
(lp4394
g14
asS'diamond deposits'
p4395
(lp4396
g25
asS'acting'
p4397
(lp4398
g7
ag8
asS'reuters-21578 collection resides'
p4399
(lp4400
g14
asS'stony-hearted liar reel'
p4401
(lp4402
g11
asS'foundation web page'
p4403
(lp4404
g11
asS'reasonable period'
p4405
(lp4406
g7
ag8
asS'distribute software'
p4407
(lp4408
g41
asS'mineworkers'
p4409
(lp4410
g38
asS'sought ben rogers'
p4411
(lp4412
g11
asS'sequential pattern mining'
p4413
(lp4414
g30
asS'economic subject categories'
p4415
(lp4416
g14
asS'sgml language'
p4417
(lp4418
g14
asS'peninsula energy started plans'
p4419
(lp4420
g38
asS'@*\ninternational wrought copper council'
p4421
(lp4422
g4
asS'wide natural resource base =\nincluding major deposits'
p4423
(lp4424
g25
asS'writing categorization rules'
p4425
(lp4426
g14
asS'qualify'
p4427
(lp4428
g7
ag8
asS'section 2'
p4429
(lp4430
g7
ag8
asS'announcement including'
p4431
(lp4432
g41
asS'21450/723 split'
p4433
(lp4434
g14
asS'modified lewis'
p4435
(lp4436
g14
asS'definition'
p4437
(lp4438
g41
asS'extend'
p4439
(lp4440
g41
asS'article starts'
p4441
(lp4442
g14
asS'month = apr'
p4443
(lp4444
g14
asS'machine-readable source code'
p4445
(lp4446
g41
asS'za/occasional-papers/26-uranium-mining-in-africa-a-continent-at-the-centre-of-a-global-nuclear-renaissance/file\njump'
p4447
(lp4448
g38
asS'kimberley pipes'
p4449
(lp4450
g38
asS'industrial products'
p4451
(lp4452
g25
asS'neighboring spectators\nshook'
p4453
(lp4454
g11
asS'subsistence crops'
p4455
(lp4456
g25
asS'slave named bull'
p4457
(lp4458
g11
asS'disclaimer'
p4459
(lp4460
g7
ag8
asS'assign'
p4461
(lp4462
g7
ag8
asS'clause'
p4463
(lp4464
g41
asS'}\n\n@inproceedings{hayes89'
p4465
(lp4466
g14
asS'target set'
p4467
(lp4468
g30
asS'kluwer called data mining'
p4469
(lp4470
g30
asS'high quality set'
p4471
(lp4472
g14
asS'mandate full safety audits'
p4473
(lp4474
g38
asS'hong kong dollar'
p4475
(lp4476
g4
asS'konstanz information miner'
p4477
(lp4478
g30
asS'oracle designates'
p4479
(lp4480
g41
asS'organizations listed'
p4481
(lp4482
g14
asS'email message david'
p4483
(lp4484
g4
asS'big door sheathed'
p4485
(lp4486
g11
asS'kentia palm =\nseed'
p4487
(lp4488
g25
asS'auto assembly'
p4489
(lp4490
g25
asS'sgml tags'
p4491
(lp4492
g14
asS'european copyright'
p4493
(lp4494
g30
asS'gpl'
p4495
(lp4496
g41
asS'differ'
p4497
(lp4498
g7
ag8
asS'data mining free speech'
p4499
(lp4500
g30
asS'lib/junit'
p4501
(lp4502
g8
asS'project gutenberg-tm ebooks'
p4503
(lp4504
g11
asS'rights conveyed'
p4505
(lp4506
g41
asS'@*\nunited nations conference'
p4507
(lp4508
g4
asS'patent infringement claim'
p4509
(lp4510
g41
asS'steel =\nmill products'
p4511
(lp4512
g25
asS'farm langlaagte'
p4513
(lp4514
g38
asS'data mining software provided'
p4515
(lp4516
g30
asS'\xc2\x92 tar de head'
p4517
(lp4518
g11
asS'cecil rhodes'
p4519
(lp4520
g38
asS'machine learning software applications written'
p4521
(lp4522
g30
asS'section viii'
p4523
(lp4524
g14
asS'central bank president miguel mancera aguayo'
p4525
(lp4526
g4
asS'<people>'
p4527
(lp4528
g14
asS'\xc2\x94\n\nbecky grew apprehensive'
p4529
(lp4530
g11
asS'actual united states\nsenator'
p4531
(lp4532
g11
asS'option'
p4533
(lp4534
g41
asS'contents  [hide] \n1'
p4535
(lp4536
g30
asS'2007 strike\n1'
p4537
(lp4538
g38
asS'phosphate rock mining'
p4539
(lp4540
g25
asS'library give'
p4541
(lp4542
g41
asS'newly created lobster'
p4543
(lp4544
g25
asS'free software foundation software'
p4545
(lp4546
g41
asS'largest coal exporter'
p4547
(lp4548
g38
asS'samuel langhorne clemens'
p4549
(lp4550
g11
asS'biggest iron ore supplier'
p4551
(lp4552
g38
asS'excludes =\nmilitary  equipment'
p4553
(lp4554
g25
asS'combining covered software'
p4555
(lp4556
g41
asS'patent issues'
p4557
(lp4558
g41
asS'@*\nunited nations'
p4559
(lp4560
g4
asS'@end[itemize]\n\nnicaragua\n@begin[itemize]\ndaniel ortega'
p4561
(lp4562
g4
asS'flaky ashes broadcast'
p4563
(lp4564
g11
asS'karoo'
p4565
(lp4566
g38
asS'kind'
p4567
(lp4568
g7
ag8
asS'subsequent discovery'
p4569
(lp4570
g38
asS'distribution license'
p4571
(lp4572
g41
asS'strange sadness rested'
p4573
(lp4574
g11
asS'machine tools'
p4575
(lp4576
g25
asS'derivative work'
p4577
(lp4578
g41
asS'dtd'
p4579
(lp4580
S'sample\\lewis.dtd'
p4581
aS'C:\\bharat\\Work\\OneDrive - NCSU\\github\\tag_based_file_manager\\sample\\lewis.dtd'
p4582
asS'selling whitewashing privileges'
p4583
(lp4584
g11
asS'license applies'
p4585
(lp4586
g41
asS'risks'
p4587
(lp4588
g7
ag8
asS'@end[itemize]\n\nhungary\n@begin[itemize]\n   head'
p4589
(lp4590
g4
asS'mines annual'
p4591
(lp4592
g38
asS'identify documents'
p4593
(lp4594
g14
asS'interactive'
p4595
(lp4596
g41
asS'web search'
p4597
(lp4598
g30
asS'derivative'
p4599
(lp4600
g41
asS'legal entities'
p4601
(lp4602
g41
asS'options exchange'
p4603
(lp4604
g4
asS'data miners'
p4605
(lp4606
g30
asS'related task'
p4607
(lp4608
g14
asS'main page\ncontents\nfeatured content\ncurrent events\nrandom article\ndonate'
p4609
(lp4610
g30
ag38
asS'private entrance\n\nchapter ii'
p4611
(lp4612
g11
asS'short time'
p4613
(lp4614
g30
asS'mitterrand'
p4615
(lp4616
g4
asS'subsequent rapid development'
p4617
(lp4618
g38
asS'final mighty hurrah'
p4619
(lp4620
g11
asS'richest economy'
p4621
(lp4622
g38
asS'federal treasurer paul keating'
p4623
(lp4624
g4
asS'corn pone devoured'
p4625
(lp4626
g11
asS'license terms'
p4627
(lp4628
g41
asS'separate till death relieved'
p4629
(lp4630
g11
asS'sell'
p4631
(lp4632
g7
ag8
asS'retrieved 2007-11-28'
p4633
(lp4634
g38
asS'sigmod conference'
p4635
(lp4636
g30
asS'amusement grew stale'
p4637
(lp4638
g11
asS'action arose'
p4639
(lp4640
g7
ag8
asS'software package'
p4641
(lp4642
g30
asS'}\n\n@book{weiss91'
p4643
(lp4644
g14
asS'1991 free software foundation'
p4645
(lp4646
g41
asS'modified apte'
p4647
(lp4648
g14
asS'economic planning agency tetsuo kondo'
p4649
(lp4650
g4
asS'data mining 2008'
p4651
(lp4652
g30
asS'knowledge extraction'
p4653
(lp4654
g30
asS'semifinished =\nmanubgfactured goods'
p4655
(lp4656
g25
asS'legal action'
p4657
(lp4658
g7
ag8
asS'@*\naustralian stock exchange'
p4659
(lp4660
g4
asS'135 valid topics\ncategories'
p4661
(lp4662
g14
asS'@*\nlondon futures'
p4663
(lp4664
g4
asS'actual lists'
p4665
(lp4666
g4
asS'added'
p4667
(lp4668
g7
ag8
asS'soares'
p4669
(lp4670
g4
asS'agreement terminate'
p4671
(lp4672
g7
ag8
asS'project gutenberg-tm'
p4673
(lp4674
g11
asS'light manubgfacturing'
p4675
(lp4676
g25
asS'toothache grew\nirksome'
p4677
(lp4678
g11
asS'mining africa'
p4679
(lp4680
g38
asS'subs=\nistence potatoes'
p4681
(lp4682
g25
asS'natural  gas'
p4683
(lp4684
g25
asS'commercial =\ncrops'
p4685
(lp4686
g25
asS'@*\nagency'
p4687
(lp4688
g4
asS'industrial equipment'
p4689
(lp4690
g25
asS'<text>\ntag'
p4691
(lp4692
g14
asS'catch =\nreaching'
p4693
(lp4694
g25
asS'software patents'
p4695
(lp4696
g41
asS'agriculture minister francois guillaume'
p4697
(lp4698
g4
asS'include wheat'
p4699
(lp4700
g25
asS'ben rogers\xc2\x92 hayloft'
p4701
(lp4702
g11
asS'party patent license'
p4703
(lp4704
g7
ag8
asS'major crops'
p4705
(lp4706
g25
asS'financial =\nservices'
p4707
(lp4708
g25
asS'cross-claim'
p4709
(lp4710
g7
ag8
asS'solemn oath--terror brings repentance--mental punishment\n\nchapter xi'
p4711
(lp4712
g11
asS'gold mining industry continued'
p4713
(lp4714
g38
asS'expressly provided'
p4715
(lp4716
g41
asS'category names'
p4717
(lp4718
g4
ag14
asS'@*\nparis stock exchange/bourse'
p4719
(lp4720
g4
asS'enforceability'
p4721
(lp4722
g7
ag8
asS'petroleum resources'
p4723
(lp4724
g4
asS'head made tom shudder--'
p4725
(lp4726
g11
asS'small fish catch'
p4727
(lp4728
g25
asS'litter furder west--so--'
p4729
(lp4730
g11
asS'low-grade iron ore'
p4731
(lp4732
g25
asS'rare =\nearth metals'
p4733
(lp4734
g25
asS'norwegian krone/crown'
p4735
(lp4736
g4
asS'industrial production index'
p4737
(lp4738
g4
asS'modifications made'
p4739
(lp4740
g41
asS'phil hayes'
p4741
(lp4742
g4
ag14
asS'@end[itemize]\n\nnorway\n@begin[itemize]\n   prime minister mrs gro harlem brundtland'
p4743
(lp4744
g4
asS'big eyes told tom'
p4745
(lp4746
g11
asS'uranium mining projects'
p4747
(lp4748
g38
asS'gold rushes'
p4749
(lp4750
g38
asS'authorized hereunder'
p4751
(lp4752
g41
asS'ha\xc2\x92nted houses'
p4753
(lp4754
g11
asS'rendered inaccurate'
p4755
(lp4756
g41
asS'heightened political tensions'
p4757
(lp4758
g38
asS'reuters-22173 test\ncollection'
p4759
(lp4760
g14
asS'copyright'
p4761
(lp4762
g41
asS'decision support system'
p4763
(lp4764
g30
asS'distributed'
p4765
(lp4766
g7
ag41
ag8
ag14
asS'related settlement negotiations'
p4767
(lp4768
g7
ag8
asS'virgin islands'
p4769
(lp4770
g25
asS'@*\ninternational wheat council'
p4771
(lp4772
g4
asS'illicit drug industry reportedly =\nproduces'
p4773
(lp4774
g25
asS'8'
(lp4775
g8
asS'saved\n\nchapter xxxii'
p4776
(lp4777
g11
asS'distributes'
p4778
(lp4779
g7
ag8
asS'grandmothers\xc2\x92 ancient trinkets'
p4780
(lp4781
g11
asS'drooping tail lifted'
p4782
(lp4783
g11
asS'recent-research\n2011 wiley interdisciplinary reviews'
p4784
(lp4785
g30
asS'toy tin trumpet'
p4786
(lp4787
g11
asS'tom compare notes\n--'
p4788
(lp4789
g11
asS'full compliance'
p4790
(lp4791
g41
asS'lethal disease'
p4792
(lp4793
g38
asS'patent licensable'
p4794
(lp4795
g41
asS'@end[itemize]'
p4796
(lp4797
g4
asS'news stories'
p4798
(lp4799
g14
asS'express'
p4800
(lp4801
g7
ag8
asS'brundtland'
p4802
(lp4803
g4
asS'western =\nsahara'
p4804
(lp4805
g25
asS'peter shoemaker'
p4806
(lp4807
g14
asS'europa island'
p4808
(lp4809
g25
asS'\xc2\x94\n\njoe grumbled awhile'
p4810
(lp4811
g11
asS'2003 mineral study'
p4812
(lp4813
g38
asS'production machinery including =\nmachine tools'
p4814
(lp4815
g25
asS'combinations'
p4816
(lp4817
g7
ag8
asS'program constitutes recipient'
p4818
(lp4819
g7
ag8
asS'natural =\ngas'
p4820
(lp4821
g25
asS'readers interested'
p4822
(lp4823
g14
asS'phosphat=\nes'
p4824
(lp4825
g25
asS'retrieved 14 november 2014\njump'
p4826
(lp4827
g30
asS'solemn hush fell'
p4828
(lp4829
g11
asS'include data archaeology'
p4830
(lp4831
g30
asS'european commission facilitated stakeholder discussion'
p4832
(lp4833
g30
asS'publish results based'
p4834
(lp4835
g14
asS'witwatersrand'
p4836
(lp4837
g38
asS'remove'
p4838
(lp4839
g7
ag8
asS'pdf\njump'
p4840
(lp4841
g38
asS'garcia'
p4842
(lp4843
g4
asS'gold mining[21]'
p4844
(lp4845
g38
asS'original creation'
p4846
(lp4847
g41
asS'foreign economic relations'
p4848
(lp4849
g4
asS'natural =\nresources'
p4850
(lp4851
g25
asS'copyrighted interfaces'
p4852
(lp4853
g41
asS'recipient understands'
p4854
(lp4855
g7
ag8
asS'=\nsemifinished products'
p4856
(lp4857
g25
asS'necessarily infringed'
p4858
(lp4859
g7
ag8
asS'split assigns documents'
p4860
(lp4861
g14
asS'gerhardus oosthuizen'
p4862
(lp4863
g38
asS'intelligence'
p4864
(lp4865
g30
asS'^ economics dept'
p4866
(lp4867
g38
asS'prime minister zbigniew messner'
p4868
(lp4869
g4
asS'defense'
p4870
(lp4871
g7
ag8
asS'principal crops'
p4872
(lp4873
g25
asS'topics category'
p4874
(lp4875
g14
asS'performance claims'
p4876
(lp4877
g7
ag8
asS'</'
p4878
(lp4879
g14
asS'oppressed millions groaning'
p4880
(lp4881
g11
asS'data processing =\nequipment'
p4882
(lp4883
g25
asS'happy scriptural flourish'
p4884
(lp4885
g11
asS'code released'
p4886
(lp4887
g41
asS'electric welding equipment'
p4888
(lp4889
g25
asS'machine learning research'
p4890
(lp4891
g30
asS'highly subsidized'
p4892
(lp4893
g25
asS'general wojciech jaruzelski'
p4894
(lp4895
g4
asS'@end[itemize]\n\nitaly\n@begin[itemize]\n   president francesco cossiga'
p4896
(lp4897
g4
asS'conditions'
p4898
(lp4899
g7
ag8
ag38
asS'commercial fisheries provide annual =\ncatch'
p4900
(lp4901
g25
asS'web site includes information'
p4902
(lp4903
g11
asS'platinum mining'
p4904
(lp4905
g38
asS'prime minister king fahd'
p4906
(lp4907
g4
asS'control characters'
p4908
(lp4909
g14
asS'canned coconut =\ncream'
p4910
(lp4911
g25
asS'intake air'
p4912
(lp4913
g38
asS'predict categories'
p4914
(lp4915
g14
asS'watch assembly'
p4916
(lp4917
g25
asS'central bank governor majid qassemi'
p4918
(lp4919
g4
asS'american statistician'
p4920
(lp4921
g30
asS'arctic ocean'
p4922
(lp4923
g25
asS'arizona state university'
p4924
(lp4925
g30
asS'[37]\nsoftware[edit]'
p4926
(lp4927
g30
asS'root =\ncrops'
p4928
(lp4929
g25
asS'visualisation-oriented data mining software'
p4930
(lp4931
g30
asS'large diamond mines'
p4932
(lp4933
g38
asS'cattle  raising =\nwidespread'
p4934
(lp4935
g25
asS'ben rogers hove'
p4936
(lp4937
g11
asS'grants recipient'
p4938
(lp4939
g7
ag8
asS'miss peters\xc2\x92 class'
p4940
(lp4941
g11
asS'delimit'
p4942
(lp4943
g14
asS'license'
p4944
(lp4945
g7
ag41
ag8
asS'figure includes'
p4946
(lp4947
g38
asS'data mining steps'
p4948
(lp4949
g30
asS'strict liability'
p4950
(lp4951
g7
ag8
asS'agriculture minister general harn leenanon'
p4952
(lp4953
g4
asS'connection'
p4954
(lp4955
g7
ag8
asS'black flag unfurled'
p4956
(lp4957
g11
asS'patents'
p4958
(lp4959
g41
asS'data anonymity'
p4960
(lp4961
g30
asS'subject matter hereof'
p4962
(lp4963
g41
asS'pdf'
p4964
(lp4965
g38
asS'binary form'
p4966
(lp4967
g41
asS'brazilian coffee institute'
p4968
(lp4969
g4
asS'contributor represents'
p4970
(lp4971
g7
ag8
asS'czech republic'
p4972
(lp4973
g25
asS'supply'
p4974
(lp4975
g38
asS'customer analytics\neducational data mining\nnational security agency\npolice-enforced anpr'
p4976
(lp4977
g30
asS'22 data files'
p4978
(lp4979
g14
asS'complies'
p4980
(lp4981
g7
ag8
asS'reaching project gutenberg-tm\xc2\x92'
p4982
(lp4983
g11
asS'data mining government'
p4984
(lp4985
g30
asS'doc'
p4986
(lp4987
S'sample\\dir2\\asr.doc'
p4988
aS'C:\\bharat\\Work\\OneDrive - NCSU\\github\\tag_based_file_manager\\sample\\dir2\\asr.doc'
p4989
asS'true depends'
p4990
(lp4991
g41
asS'scientific computing framework'
p4992
(lp4993
g30
asS'canadian dollar'
p4994
(lp4995
g4
asS'document belonged'
p4996
(lp4997
g14
asS'flickering reflections flung'
p4998
(lp4999
g11
asS'biannual academic journal titled'
p5000
(lp5001
g30
asS'two--huck mounts guard\n\nchapter xxix'
p5002
(lp5003
g11
asS'@end[itemize]\n\nczechoslovakia\n@begin[itemize]\n   president gustav husak'
p5004
(lp5005
g4
asS'platinum'
p5006
(lp5007
g38
asS'licensed hereunder'
p5008
(lp5009
g7
ag8
asS'uncovering hidden patterns[12]'
p5010
(lp5011
g30
asS'transvaal province'
p5012
(lp5013
g38
asS'^ limited power'
p5014
(lp5015
g38
asS'acceptance'
p5016
(lp5017
g7
ag8
asS'000 short tons'
p5018
(lp5019
g38
asS'light =\nassembly operations'
p5020
(lp5021
g25
asS'2013\njump'
p5022
(lp5023
g38
asS'gold production'
p5024
(lp5025
g38
asS'excluding declaratory judgment actions'
p5026
(lp5027
g41
asS'huge'
p5028
(lp5029
g38
asS'placer deposits'
p5030
(lp5031
g25
asS'artificial intelligence applications'
p5032
(lp5033
g14
asS'customer data-mining applications'
p5034
(lp5035
g30
asS'overtook india'
p5036
(lp5037
g38
asS'low rainfall limit =\nagricultural activity'
p5038
(lp5039
g25
asS'surrounding gold-rich greenstone belts'
p5040
(lp5041
g38
asS'western sahara'
p5042
(lp5043
g25
asS'@*\ninternational energy agency'
p5044
(lp5045
g4
asS'feature set formation produced tuples based'
p5046
(lp5047
g14
asS'mining companies'
p5048
(lp5049
g38
asS'ten yellow tickets'
p5050
(lp5051
g11
asS'kosovo produces =\nfruits'
p5052
(lp5053
g25
asS'mine'
p5054
(lp5055
g38
asS'africa mine strike'
p5056
(lp5057
g38
asS'non-profit organization'
p5058
(lp5059
g38
asS'research[edit]'
p5060
(lp5061
g30
asS'venkataraman'
p5062
(lp5063
g4
asS'accustomed school murmur\nrose'
p5064
(lp5065
g11
asS'slim oatmeal diet'
p5066
(lp5067
g11
asS'miscellaneous manubgfactured goods'
p5068
(lp5069
g25
asS'principal paddy =\nrice'
p5070
(lp5071
g25
asS'decision trees'
p5072
(lp5073
g30
asS'creating derivative works based'
p5074
(lp5075
g11
asS'low geothermal gradient'
p5076
(lp5077
g38
asS'internal corrosion'
p5078
(lp5079
g38
asS'training document'
p5080
(lp5081
g14
asS'mineral riches'
p5082
(lp5083
g38
asS'governor'
p5084
(lp5085
g4
asS'small scale'
p5086
(lp5087
g25
asS'expressly'
p5088
(lp5089
g7
ag8
asS'grizzlies[clarification needed]'
p5090
(lp5091
g38
asS'information retrieval laboratory'
p5092
(lp5093
g14
asS'behavior'
p5094
(lp5095
g30
asS'finance minister ray macsharry'
p5096
(lp5097
g4
asS'finance minister chu okongwu'
p5098
(lp5099
g4
asS'compare results'
p5100
(lp5101
g14
asS'kdd process'
p5102
(lp5103
g30
asS'=\nfood crops include =\ncoffee'
p5104
(lp5105
g25
asS'leading =\neuropean producer'
p5106
(lp5107
g25
asS'distributing project gutenberg-tm electronic works provided'
p5108
(lp5109
g11
asS'line note'
p5110
(lp5111
g14
asS'@end[itemize]\n\nindia\n@begin[itemize]\n   president ramaswamy venkataraman'
p5112
(lp5113
g4
asS'woods\n\ntom meditates\n\nrobin hood'
p5114
(lp5115
g11
asS'legal actions brought'
p5116
(lp5117
g7
ag8
asS'ssrn 546782freely accessible'
p5118
(lp5119
g30
asS'toys\n\namusement\n\nbecky thatcher\n\npaying'
p5120
(lp5121
g11
asS'truth\n\nchapter xx'
p5122
(lp5123
g11
asS'industry minister manuel romero caro'
p5124
(lp5125
g4
asS'prime minister turgut ozal'
p5126
(lp5127
g4
asS'rarely facetious thing'
p5128
(lp5129
g11
asS'sunflower =\nseed'
p5130
(lp5131
g25
asS'standing committee'
p5132
(lp5133
g4
asS'@end[itemize]\n\nbelgium\n@begin[itemize]\n   prime minister wilfried martens'
p5134
(lp5135
g4
asS'documentation included'
p5136
(lp5137
g41
asS'disciples were--\xc2\x94\n\n\xc2\x93_david'
p5138
(lp5139
g11
asS'date initial developer'
p5140
(lp5141
g41
asS'hojatoleslam ali hashemi rafsanjani'
p5142
(lp5143
g4
asS'@*\ninternational wool secretariat'
p5144
(lp5145
g4
asS'italy'
p5146
(lp5147
g4
asS'grant'
p5148
(lp5149
g7
ag41
ag8
asS'recipient automatically receives'
p5150
(lp5151
g41
asS'low voice--injun joe\xc2\x92'
p5152
(lp5153
g11
asS'world output'
p5154
(lp5155
g38
asS'commercial =\njute'
p5156
(lp5157
g25
asS'scaling algorithms'
p5158
(lp5159
g30
asS'@*\ninternational labour organisation'
p5160
(lp5161
g4
asS'white sandy beaches'
p5162
(lp5163
g25
asS'newswire articles'
p5164
(lp5165
g14
asS'modification'
p5166
(lp5167
g41
asS'party waives'
p5168
(lp5169
g7
ag8
asS'bypass documents'
p5170
(lp5171
g14
asS'world bank president barber conable'
p5172
(lp5173
g4
asS'northern mariana =\nislands'
p5174
(lp5175
g25
asS'contexts raise questions'
p5176
(lp5177
g30
asS'european research libraries'
p5178
(lp5179
g30
asS'losses sustained'
p5180
(lp5181
g41
asS'@*\ninternational sugar agreement'
p5182
(lp5183
g4
asS'devils--cautious approaches--happy hours\n\nchapter vii'
p5184
(lp5185
g11
asS'@*\njohannesburg stock exchange'
p5186
(lp5187
g4
asS'data integration\ndata transformation\nelectronic discovery\ninformation extraction\ninformation integration\nnamed-entity recognition\nprofiling'
p5188
(lp5189
g30
asS'rolled steel =\nproducts'
p5190
(lp5191
g25
asS'governor robin leigh-pemberton'
p5192
(lp5193
g4
asS'country\nnavigation menu'
p5194
(lp5195
g38
asS'precise terms'
p5196
(lp5197
g41
asS'135 topics categories'
p5198
(lp5199
g4
ag14
asS'project gutenberg'
p5200
(lp5201
g11
asS'central bank governor bengt dennis'
p5202
(lp5203
g4
asS'united states central intelligence agency'
p5204
(lp5205
g38
asS'information systems'
p5206
(lp5207
g14
asS'pattern recognition'
p5208
(lp5209
g30
asS'working conditions\n1'
p5210
(lp5211
g38
asS'international development'
p5212
(lp5213
g4
asS'finance minister kiichi miyazawa'
p5214
(lp5215
g4
asS'makes'
p5216
(lp5217
g41
asS'alleging'
p5218
(lp5219
g7
ag41
ag8
asS'text\ncategorization researchers discussed'
p5220
(lp5221
g14
asS'analysis'
p5222
(lp5223
g30
asS'person'
p5224
(lp5225
g7
ag8
asS'york federal reserve bank'
p5226
(lp5227
g4
asS'small  deposits'
p5228
(lp5229
g25
asS'boer war'
p5230
(lp5231
g38
asS'bundled'
p5232
(lp5233
g8
asS'civilian population'
p5234
(lp5235
g38
asS'considered independent'
p5236
(lp5237
g41
asS'responsible'
p5238
(lp5239
g41
asS'modified version'
p5240
(lp5241
g41
asS'patent claims licensable'
p5242
(lp5243
g7
ag8
asS'chronological burstiness'
p5244
(lp5245
g14
asS'adventure grew sensibly sharper'
p5246
(lp5247
g11
asS'world'
p5248
(lp5249
g30
asS'@*\n@end[format]\n@blankspace[3 lines]\n________________________________________________________________\n@heading[country codes'
p5250
(lp5251
g4
asS'survive termination'
p5252
(lp5253
g41
asS'dull woody accent'
p5254
(lp5255
g11
asS'aerial view'
p5256
(lp5257
g38
asS'reports include'
p5258
(lp5259
g30
asS'outlier detection methods written'
p5260
(lp5261
g30
asS'including legal fees'
p5262
(lp5263
g11
asS'metal-cutting machine =\ntools'
p5264
(lp5265
g25
asS'free\ndistribution'
p5266
(lp5267
g14
asS'stephen harding'
p5268
(lp5269
g14
asS'spliced kite-strings fast'
p5270
(lp5271
g11
asS'stainless steel'
p5272
(lp5273
g38
asS'heavy industrial products include raw =\nsteel'
p5274
(lp5275
g25
asS'exercising'
p5276
(lp5277
g7
ag8
asS'separate modules'
p5278
(lp5279
g7
ag8
asS'manubgfactured =\nproducts'
p5280
(lp5281
g25
asS'durable  consumer =\ngoods'
p5282
(lp5283
g25
asS'significant number'
p5284
(lp5285
g14
asS'transformation'
p5286
(lp5287
g30
asS'places categories correspond'
p5288
(lp5289
g14
asS'machine =\ntools'
p5290
(lp5291
g25
asS'information retrieval test collections'
p5292
(lp5293
g14
asS'bulky bundle of--\n\n\xc2\x93'
p5294
(lp5295
g11
asS'text categorization test collection'
p5296
(lp5297
g14
asS'loss'
p5298
(lp5299
g7
ag8
asS'making results hard'
p5300
(lp5301
g14
asS'concrete block'
p5302
(lp5303
g25
asS'budget office james miller'
p5304
(lp5305
g4
asS'reuters tag'
p5306
(lp5307
g14
asS'finance minister luiz carlos bresser pereira'
p5308
(lp5309
g4
asS'schlueter'
p5310
(lp5311
g4
asS'text retrieval test collections'
p5312
(lp5313
g14
asS'basic theme'
p5314
(lp5315
g14
asS'topics\napply'
p5316
(lp5317
g14
asS'single gzipped unix tar archive'
p5318
(lp5319
g14
asS'economy minister knud enggaard'
p5320
(lp5321
g4
asS'modifications'
p5322
(lp5323
g41
asS'cia world factbook'
p5324
(lp5325
g38
asS'international air transport association director general\n    guenter eser'
p5326
(lp5327
g4
asS'}\n\n@inproceedings{lewis94b'
p5328
(lp5329
g14
asS'sgml-tagged version'
p5330
(lp5331
g14
asS'incidental'
p5332
(lp5333
g7
ag8
asS'creamer media'
p5334
(lp5335
g38
asS'annotation led'
p5336
(lp5337
g14
asS'deep seabed minerals'
p5338
(lp5339
g25
asS'continue'
p5340
(lp5341
g7
ag8
asS'south africa\ndiamond'
p5342
(lp5343
g38
asS'data mining process'
p5344
(lp5345
g30
asS'art thou that--that--\xc2\x94\n\n\xc2\x93dares'
p5346
(lp5347
g11
asS'methods'
p5348
(lp5349
g30
ag14
asS'software packages'
p5350
(lp5351
g30
asS'absolutely'
p5352
(lp5353
g41
asS'uk government'
p5354
(lp5355
g30
asS'cross platform tool'
p5356
(lp5357
g30
asS'creation'
p5358
(lp5359
g41
asS'food minister alvaro barreto'
p5360
(lp5361
g4
asS'light =\nindustry'
p5362
(lp5363
g25
asS'examples'
p5364
(lp5365
g30
asS'finance minister jon baldvin hannibalsson'
p5366
(lp5367
g4
asS'applied data mining'
p5368
(lp5369
g30
asS'asian development bank president masao fujioka'
p5370
(lp5371
g4
asS'nicaragua'
p5372
(lp5373
g4
asS'held invalid'
p5374
(lp5375
g41
asS'@*\ninternational rubber study group'
p5376
(lp5377
g4
asS'control compilation'
p5378
(lp5379
g41
asS'turn provided'
p5380
(lp5381
g30
asS'electronic works'
p5382
(lp5383
g11
asS'pirates\xc2\x92 egg market\n\ntom'
p5384
(lp5385
g11
asS'@end[itemize]\n\nspain\n@begin[itemize]\n   prime minister felipe gonzalez'
p5386
(lp5387
g4
asS'2014 show'
p5388
(lp5389
g30
asS'journal data mining'
p5390
(lp5391
g30
asS'june 1995'
p5392
(lp5393
g41
asS'source files distributed'
p5394
(lp5395
g41
asS'data mining standard named'
p5396
(lp5397
g30
asS'annual international conference'
p5398
(lp5399
g30
asS'mining practices'
p5400
(lp5401
g30
asS'automobile =\nassembly'
p5402
(lp5403
g25
asS'test data'
p5404
(lp5405
g14
asS'@*\ngulf cooperation council'
p5406
(lp5407
g4
asS'knowledge discovery software tools'
p5408
(lp5409
g30
asS'derivative works'
p5410
(lp5411
g7
ag41
ag8
asS'courts located'
p5412
(lp5413
g41
asS'processing'
p5414
(lp5415
g14
asS'making modifications'
p5416
(lp5417
g41
asS'agreement'
p5418
(lp5419
g7
ag41
ag8
asS'good place'
p5420
(lp5421
g14
asS'licences revoked'
p5422
(lp5423
g38
asS'hydroelectr=\nic potential'
p5424
(lp5425
g25
asS'hydropo=\nwer potential'
p5426
(lp5427
g25
asS'south african gold mines'
p5428
(lp5429
g38
asS'bushy white\nwhiskers'
p5430
(lp5431
g11
asS'important food industry'
p5432
(lp5433
g25
asS'content related categories'
p5434
(lp5435
g14
asS'depths'
p5436
(lp5437
g38
asS'reuters newswire'
p5438
(lp5439
g14
asS'135 valid topics categories'
p5440
(lp5441
g14
asS'assign topics categories'
p5442
(lp5443
g14
asS'classification \xe2\x80\xa2 regression'
p5444
(lp5445
g30
asS'publish revised'
p5446
(lp5447
g41
asS'1 library'
p5448
(lp5449
g8
asS'integrated software application'
p5450
(lp5451
g30
asS'corpus\npreparation process'
p5452
(lp5453
g14
asS've=\ngetable oil'
p5454
(lp5455
g25
asS'uk copyright laws'
p5456
(lp5457
g30
asS'top fishing nations'
p5458
(lp5459
g25
asS'country 2010-2015'
p5460
(lp5461
g38
asS'great splint-bottom\narm-chair'
p5462
(lp5463
g11
asS'innocents\nbeguiled\n\nchapter iii'
p5464
(lp5465
g11
asS'neural networks'
p5466
(lp5467
g30
asS'sections 2'
p5468
(lp5469
g7
ag8
asS'safety instructions'
p5470
(lp5471
g38
asS'typographical variant'
p5472
(lp5473
g14
asS'strong temptations--strategic movements--'
p5474
(lp5475
g11
asS'agriculture minister carlos romero'
p5476
(lp5477
g4
asS'license incorporates'
p5478
(lp5479
g41
asS'finance minister radius prawiro'
p5480
(lp5481
g4
asS'contributor'
p5482
(lp5483
g7
ag41
ag8
asS'golf fields'
p5484
(lp5485
g38
asS'south africa \xc2\xa7 mining\nsouth africa'
p5486
(lp5487
g38
asS'great dead boughs till'
p5488
(lp5489
g11
asS'court judgment'
p5490
(lp5491
g41
asS'commercial =\n crops include cotton'
p5492
(lp5493
g25
asS'invalid places'
p5494
(lp5495
g14
asS'concrete blocks'
p5496
(lp5497
g25
asS'real life applications'
p5498
(lp5499
g30
asS'@*\nasian development bank'
p5500
(lp5501
g4
asS'files'
p5502
(lp5503
g41
asS'saudi arabian monetary agency hamad saud al-sayyari'
p5504
(lp5505
g4
asS'work means'
p5506
(lp5507
g41
asS'restrictions'
p5508
(lp5509
g41
asS'consumer =\ngoods'
p5510
(lp5511
g25
asS'artist\n\ninterrupted courtship'
p5512
(lp5513
g11
asS'program prove defective'
p5514
(lp5515
g41
asS'filed'
p5516
(lp5517
g7
ag8
asS'senseless\nreply offered--'
p5518
(lp5519
g11
asS'project\ngutenberg-tm license'
p5520
(lp5521
g11
asS'laura knecht'
p5522
(lp5523
g14
asS'periodic shortages'
p5524
(lp5525
g25
asS'hand\ncorrections'
p5526
(lp5527
g14
asS'arable =\nland'
p5528
(lp5529
g25
asS'producer =\ngoods'
p5530
(lp5531
g25
asS'reuters-22173 collection'
p5532
(lp5533
g14
asS'*********************************************************************\n\n****subject codes'
p5534
(lp5535
g4
asS'sublicense'
p5536
(lp5537
g7
ag8
asS'food minister jenoe vancsa'
p5538
(lp5539
g4
asS'prevent silicosis'
p5540
(lp5541
g38
asS'current location'
p5542
(lp5543
g14
asS'copyright & notification'
p5544
(lp5545
g14
asS'camp wonderfully refreshed'
p5546
(lp5547
g11
asS'clear'
p5548
(lp5549
g41
asS'topics\nfield'
p5550
(lp5551
g14
asS'predictive markup language modeling'
p5552
(lp5553
g30
asS'excluding combinations'
p5554
(lp5555
g7
ag8
asS'[4]\nanomaly detection'
p5556
(lp5557
g30
asS'gnomovision version 69'
p5558
(lp5559
g41
asS'distinguishing version number'
p5560
(lp5561
g7
ag41
ag8
asS'consumer  goods'
p5562
(lp5563
g25
asS'fishing potential largely =\nunexploited'
p5564
(lp5565
g25
asS'isbn 3-540-37881-2\nmurphy'
p5566
(lp5567
g30
asS'cure'
p5568
(lp5569
g7
ag8
asS'annual =\nfish catch'
p5570
(lp5571
g25
asS'liability terms'
p5572
(lp5573
g41
asS'million metric  tons'
p5574
(lp5575
g25
asS'personal injury resulting'
p5576
(lp5577
g41
asS'\xc2\x94 \xc2\x93muff potter\xc2\x92ll hang'
p5578
(lp5579
g11
asS'uranium'
p5580
(lp5581
g38
asS'000 long tons'
p5582
(lp5583
g38
asS'invalid'
p5584
(lp5585
g7
ag8
asS'application'
p5586
(lp5587
g30
ag41
asS'finance minister mohammed ahmed al-razaz'
p5588
(lp5589
g4
asS'shallower'
p5590
(lp5591
g38
asS'data mining algorithms'
p5592
(lp5593
g30
asS'yoram\nsinger'
p5594
(lp5595
g14
asS'users'
p5596
(lp5597
g41
asS'\xc2\x93plain vanilla ascii\xc2\x94'
p5598
(lp5599
g11
asS'agriculture organisation'
p5600
(lp5601
g4
asS'manual extraction'
p5602
(lp5603
g30
asS'local farmers produce fresh =\nvegetables'
p5604
(lp5605
g25
asS'absurd boyish ways'
p5606
(lp5607
g11
asS'problems'
p5608
(lp5609
g41
asS'craft items'
p5610
(lp5611
g25
asS'raw  materials'
p5612
(lp5613
g25
asS'central bank governor jose fernandez'
p5614
(lp5615
g4
asS'classification results'
p5616
(lp5617
g30
asS'data aggregation'
p5618
(lp5619
g30
asS'=\nlivestock products include poultry'
p5620
(lp5621
g25
asS'food grain production'
p5622
(lp5623
g25
asS'unenforceable'
p5624
(lp5625
g7
ag8
asS'project gutenberg-tm\nelectronic works'
p5626
(lp5627
g11
asS'sector hurt'
p5628
(lp5629
g25
asS'=\nthird-largest tin producer'
p5630
(lp5631
g25
asS'rhenium-osmium isotope studies'
p5632
(lp5633
g38
asS'gross national/domestic product'
p5634
(lp5635
g4
asS'previously unexamined test\nset'
p5636
(lp5637
g14
asS'patent licenses granted'
p5638
(lp5639
g8
asS'required'
p5640
(lp5641
g7
ag8
asS'single correct\nplace'
p5642
(lp5643
g14
asS'john wiley & sons'
p5644
(lp5645
g30
asS'ppt'
p5646
(lp5647
S'sample\\presentation2.ppt'
p5648
aS'C:\\bharat\\Work\\OneDrive - NCSU\\github\\tag_based_file_manager\\sample\\presentation2.ppt'
p5649
aS'sample\\dir1\\mtech.ppt'
p5650
aS'C:\\bharat\\Work\\OneDrive - NCSU\\github\\tag_based_file_manager\\sample\\dir1\\mtech.ppt'
p5651
aS'sample\\dir2\\prism.ppt'
p5652
aS'C:\\bharat\\Work\\OneDrive - NCSU\\github\\tag_based_file_manager\\sample\\dir2\\prism.ppt'
p5653
asS'governor bob johnston'
p5654
(lp5655
g4
asS'implied'
p5656
(lp5657
g7
ag41
ag8
asS'manubgfactured goods'
p5658
(lp5659
g25
asS'latest words\nlingering dreamily'
p5660
(lp5661
g11
asS'[39]\nforrester research 2010 predictive analytics'
p5662
(lp5663
g30
asS'placer =\ndeposits'
p5664
(lp5665
g25
asS'date contributor'
p5666
(lp5667
g41
asS'analysis step'
p5668
(lp5669
g30
asS'=\nnorthern bosnia support orchards'
p5670
(lp5671
g25
asS'code'
p5672
(lp5673
g41
asS'soil conditions support =\nlivestock raising'
p5674
(lp5675
g25
asS'natural gas'
p5676
(lp5677
g4
ag25
asS'data mining\ndata mining topics'
p5678
(lp5679
g30
asS'privacy policy'
p5680
(lp5681
g38
asS'craft =\nitems'
p5682
(lp5683
g25
asS'text\ncategorization task'
p5684
(lp5685
g14
asS'gz'
p5686
(lp5687
S'sample\\reuters21578.tar.gz'
p5688
aS'C:\\bharat\\Work\\OneDrive - NCSU\\github\\tag_based_file_manager\\sample\\reuters21578.tar.gz'
p5689
asS'text\nelement'
p5690
(lp5691
g14
asS'assumes sole responsibility'
p5692
(lp5693
g7
ag8
asS'valid topics category'
p5694
(lp5695
g14
asS'prime minister yu kuo-hua'
p5696
(lp5697
g4
asS'plausible feature/'
p5698
(lp5699
g14
asS'projects\nwikimedia commons\nlanguages\n\xd0\xa3\xd0\xba\xd1\x80\xd0\xb0\xd1\x97\xd0\xbd\xd1\x81\xd1\x8c\xd0\xba\xd0\xb0\nedit links'
p5700
(lp5701
g38
asS'@end[itemize]\n\nireland\n@begin[itemize]\n   president patrick hillery'
p5702
(lp5703
g4
asS'contributions'
p5704
(lp5705
g7
ag8
asS'gaudy outcast condition'
p5706
(lp5707
g11
asS'pleasant climate =\nfostering tourism'
p5708
(lp5709
g25
asS'increased discussion'
p5710
(lp5711
g30
asS'authors commit'
p5712
(lp5713
g41
asS'agriculture minister laurits toernaes'
p5714
(lp5715
g4
asS'export control laws'
p5716
(lp5717
g41
asS'work based'
p5718
(lp5719
g41
asS'gold'
p5720
(lp5721
g38
asS'continual movement'
p5722
(lp5723
g38
asS'[citation needed] ownership'
p5724
(lp5725
g38
asS'@*\neuropean monetary cooperation fund'
p5726
(lp5727
g4
asS'doctor robinson dies'
p5728
(lp5729
g11
asS'obligations'
p5730
(lp5731
g7
ag41
ag8
asS'prime minister anibal cavaco silva'
p5732
(lp5733
g4
asS'carcass\ncastor-meal\ncastor-oil\ncastorseed\ncitruspulp\ncocoa\ncoconut\ncoconut-oil\ncoffee\ncopper\ncopra-cake\ncorn\ncorn-oil\ncornglutenfeed\ncotton \ncotton-meal\ncotton-oil\ncottonseed\ncpi\ncpu\ncrude\ncruzado\ndfl\ndkr\ndlr\ndmk\ndrachma\nearn\nescudo\nf-cattle\nffr\nfishmeal\nflaxseed\nfuel\ngas\ngnp\ngold\ngrain\ngroundnut\ngroundnut-meal\ngroundnut-oil\nheat\nhk\nhog\nhousing\nincome\ninstal-debt\ninterest\ninventories\nipi\niron-steel\njet\njobs\nl-cattle\nlead\nlei\nlin-meal\nlin-oil\nlinseed\nlit\nlivestock\nlumber\nlupin\nmeal-feed\nmexpeso\nmoney-fx\nmoney-supply\nnaphtha     \nnat-gas\nnickel\nnkr\nnzdlr\noat\noilseed\norange\npalladium\npalm-meal\npalm-oil\npalmkernel\npeseta\npet-chem\nplatinum\nplywood\npork-belly\npotato\npropane\nrand\nrape-meal\nrape-oil\nrapeseed\nred-bean\nreserves\nretail\nrice\nringgit\nrubber\nrupiah\nrye\nsaudriyal\nsfr\nship\nsilk\nsilver\nsingdlr\nskr\nsorghum\nsoy-meal\nsoy-oil\nsoybean\nstg\nstrategic-metal\nsugar\nsun-meal\nsun-oil\nsunseed\ntapioca\ntea\ntin\ntrade\ntung\ntung-oil\nveg-oil\nwheat\nwool\nwpi\nyen\nzinc'
p5734
(lp5735
g279
asS'excluded'
p5736
(lp5737
g41
asS'mysterious writing\n\nriver view'
p5738
(lp5739
g11
asS'include'
p5740
(lp5741
g7
ag8
asS'produces wide range'
p5742
(lp5743
g25
asS'energy hungry'
p5744
(lp5745
g38
asS'text belongs'
p5746
(lp5747
g14
asS'highly  labor intensive'
p5748
(lp5749
g25
asS'central bank governor mariano rubio'
p5750
(lp5751
g4
asS'central bank governor tomas'
p5752
(lp5753
g4
asS'miners'
p5754
(lp5755
g38
asS'topic category'
p5756
(lp5757
g14
asS'contributor grant'
p5758
(lp5759
g41
asS'wikipedia'
p5760
(lp5761
g38
asS'sixth category field'
p5762
(lp5763
g14
asS'rank weeds smothering'
p5764
(lp5765
g11
asS'common form'
p5766
(lp5767
g41
asS'^ jump'
p5768
(lp5769
g38
asS'burning\nrecollections throng'
p5770
(lp5771
g11
asS'mined'
p5772
(lp5773
g38
asS'/~lewis'
p5774
(lp5775
g14
asS'kluwer academic publishers\nhan'
p5776
(lp5777
g30
asS'biggest'
p5778
(lp5779
g38
asS'social commission'
p5780
(lp5781
g4
asS'source code distributed'
p5782
(lp5783
g41
asS'indexing documents'
p5784
(lp5785
g14
asS'fruit =\nprovide'
p5786
(lp5787
g25
asS'finance minister bazyli samojlik'
p5788
(lp5789
g4
asS'timespan covered'
p5790
(lp5791
g14
asS'small steel-rolling =\nmills'
p5792
(lp5793
g25
asS'diamond discoveries'
p5794
(lp5795
g38
asS'add information'
p5796
(lp5797
g41
asS'predictive analytics'
p5798
(lp5799
g30
asS'clay earth  pigment'
p5800
(lp5801
g25
asS'retrieved 2017-01-08'
p5802
(lp5803
g38
asS'ha\xc2\x92nted room'
p5804
(lp5805
g11
asS'lewis@research'
p5806
(lp5807
g14
asS'original software'
p5808
(lp5809
g41
asS'loving attentions aunt polly lavished'
p5810
(lp5811
g11
asS'hillery'
p5812
(lp5813
g4
asS'modified'
p5814
(lp5815
g7
ag41
ag8
asS'jump'
p5816
(lp5817
g38
asS'[citation needed]\nsituation'
p5818
(lp5819
g30
asS'hoss williams to-night'
p5820
(lp5821
g11
asS'jacob zuma'
p5822
(lp5823
g38
asS'project\ngutenberg-tm electronic work'
p5824
(lp5825
g11
asS'licenses'
p5826
(lp5827
g7
ag41
ag8
asS'small-scale =\nbeverage production'
p5828
(lp5829
g25
asS'injun joe lay stretched'
p5830
(lp5831
g11
asS'reproduce'
p5832
(lp5833
g7
ag8
asS'federal reserve board alan greenspan'
p5834
(lp5835
g4
asS'included files'
p5836
(lp5837
g14
asS'@*\nhong kong stock exchange'
p5838
(lp5839
g4
asS'@end[itemize]\n\ncanada\n@begin[itemize]\n   prime minister brian mulroney'
p5840
(lp5841
g4
asS'small unexploited =\ndeposits'
p5842
(lp5843
g25
asS'biggest gold mine halted'
p5844
(lp5845
g38
asS'project gutenberg-tm work'
p5846
(lp5847
g11
asS'tropical =\nwoods'
p5848
(lp5849
g25
asS'european origin'
p5850
(lp5851
g38
asS'identifiable sections'
p5852
(lp5853
g41
asS'large numbers'
p5854
(lp5855
g14
asS'south african miners'
p5856
(lp5857
g38
asS'exercise'
p5858
(lp5859
g7
ag8
asS'poorly-named attribute'
p5860
(lp5861
g14
asS'free open-source data mining software'
p5862
(lp5863
g30
asS'exchange'
p5864
(lp5865
g41
asS'modified hayes'
p5866
(lp5867
g14
asS'participant alleging'
p5868
(lp5869
g41
asS'commercial'
p5870
(lp5871
g7
ag8
asS'modified files'
p5872
(lp5873
g41
asS'barely perceptible start'
p5874
(lp5875
g11
asS'economy minister ali wardhana'
p5876
(lp5877
g4
asS'mining conditions'
p5878
(lp5879
g38
asS'results validation[edit]'
p5880
(lp5881
g30
asS'implied including'
p5882
(lp5883
g7
ag8
asS'information harvesting'
p5884
(lp5885
g30
asS'2004 siam dm conference'
p5886
(lp5887
g30
asS'\xc2\x93project gutenberg\xc2\x94'
p5888
(lp5889
g11
asS'\xc2\x93ha\xc2\x92nted\xc2\x94 house'
p5890
(lp5891
g11
asS'receive'
p5892
(lp5893
g41
asS'portions thereof'
p5894
(lp5895
g41
asS'wrong field'
p5896
(lp5897
g14
asS'delors'
p5898
(lp5899
g4
asS'central bank president cesar ferrari'
p5900
(lp5901
g4
asS'survey'
p5902
(lp5903
g38
asS'poor dumb beast'
p5904
(lp5905
g11
asS'robert maxwell'
p5906
(lp5907
g4
asS'mine safety received considerable publicity'
p5908
(lp5909
g38
asS'@*\nsingapore international monetary exchange'
p5910
(lp5911
g4
asS'automobile assembly plant'
p5912
(lp5913
g25
asS'large data bases\nstandards[edit]'
p5914
(lp5915
g30
asS'tar-and-feather injun joe'
p5916
(lp5917
g11
asS'claim'
p5918
(lp5919
g7
ag41
ag8
asS'injun joe infested'
p5920
(lp5921
g11
asS'net importer'
p5922
(lp5923
g25
asS'large-scale data'
p5924
(lp5925
g30
asS'general public licenses'
p5926
(lp5927
g41
asS'defense advanced research projects agency'
p5928
(lp5929
g14
asS'[7]\ndue'
p5930
(lp5931
g38
asS'palm  =\nkernels'
p5932
(lp5933
g25
asS'sgm'
p5934
(lp5935
S'sample\\reut2-001.sgm'
p5936
aS'C:\\bharat\\Work\\OneDrive - NCSU\\github\\tag_based_file_manager\\sample\\reut2-001.sgm'
p5937
aS'sample\\reut2-000.sgm'
p5938
aS'C:\\bharat\\Work\\OneDrive - NCSU\\github\\tag_based_file_manager\\sample\\reut2-000.sgm'
p5939
aS'sample\\reut2-002.sgm'
p5940
aS'C:\\bharat\\Work\\OneDrive - NCSU\\github\\tag_based_file_manager\\sample\\reut2-002.sgm'
p5941
aS'sample\\reut2-003.sgm'
p5942
aS'C:\\bharat\\Work\\OneDrive - NCSU\\github\\tag_based_file_manager\\sample\\reut2-003.sgm'
p5943
aS'sample\\reut2-004.sgm'
p5944
aS'C:\\bharat\\Work\\OneDrive - NCSU\\github\\tag_based_file_manager\\sample\\reut2-004.sgm'
p5945
aS'sample\\reut2-005.sgm'
p5946
aS'C:\\bharat\\Work\\OneDrive - NCSU\\github\\tag_based_file_manager\\sample\\reut2-005.sgm'
p5947
aS'sample\\reut2-006.sgm'
p5948
aS'C:\\bharat\\Work\\OneDrive - NCSU\\github\\tag_based_file_manager\\sample\\reut2-006.sgm'
p5949
aS'sample\\reut2-007.sgm'
p5950
aS'C:\\bharat\\Work\\OneDrive - NCSU\\github\\tag_based_file_manager\\sample\\reut2-007.sgm'
p5951
aS'sample\\reut2-008.sgm'
p5952
aS'C:\\bharat\\Work\\OneDrive - NCSU\\github\\tag_based_file_manager\\sample\\reut2-008.sgm'
p5953
aS'sample\\reut2-009.sgm'
p5954
aS'C:\\bharat\\Work\\OneDrive - NCSU\\github\\tag_based_file_manager\\sample\\reut2-009.sgm'
p5955
aS'sample\\reut2-010.sgm'
p5956
aS'C:\\bharat\\Work\\OneDrive - NCSU\\github\\tag_based_file_manager\\sample\\reut2-010.sgm'
p5957
aS'sample\\reut2-011.sgm'
p5958
aS'C:\\bharat\\Work\\OneDrive - NCSU\\github\\tag_based_file_manager\\sample\\reut2-011.sgm'
p5959
aS'sample\\reut2-012.sgm'
p5960
aS'C:\\bharat\\Work\\OneDrive - NCSU\\github\\tag_based_file_manager\\sample\\reut2-012.sgm'
p5961
aS'sample\\reut2-013.sgm'
p5962
aS'C:\\bharat\\Work\\OneDrive - NCSU\\github\\tag_based_file_manager\\sample\\reut2-013.sgm'
p5963
aS'sample\\reut2-014.sgm'
p5964
aS'C:\\bharat\\Work\\OneDrive - NCSU\\github\\tag_based_file_manager\\sample\\reut2-014.sgm'
p5965
aS'sample\\reut2-015.sgm'
p5966
aS'C:\\bharat\\Work\\OneDrive - NCSU\\github\\tag_based_file_manager\\sample\\reut2-015.sgm'
p5967
aS'sample\\reut2-016.sgm'
p5968
aS'C:\\bharat\\Work\\OneDrive - NCSU\\github\\tag_based_file_manager\\sample\\reut2-016.sgm'
p5969
aS'sample\\reut2-017.sgm'
p5970
aS'C:\\bharat\\Work\\OneDrive - NCSU\\github\\tag_based_file_manager\\sample\\reut2-017.sgm'
p5971
aS'sample\\reut2-018.sgm'
p5972
aS'C:\\bharat\\Work\\OneDrive - NCSU\\github\\tag_based_file_manager\\sample\\reut2-018.sgm'
p5973
aS'sample\\reut2-019.sgm'
p5974
aS'C:\\bharat\\Work\\OneDrive - NCSU\\github\\tag_based_file_manager\\sample\\reut2-019.sgm'
p5975
aS'sample\\reut2-020.sgm'
p5976
aS'C:\\bharat\\Work\\OneDrive - NCSU\\github\\tag_based_file_manager\\sample\\reut2-020.sgm'
p5977
aS'sample\\reut2-021.sgm'
p5978
aS'C:\\bharat\\Work\\OneDrive - NCSU\\github\\tag_based_file_manager\\sample\\reut2-021.sgm'
p5979
asS'thailand'
p5980
(lp5981
g4
asS'eclipse foundation'
p5982
(lp5983
g7
asS'apply'
p5984
(lp5985
g7
ag8
asS'food shortages include  =\nbread grain'
p5986
(lp5987
g25
asS'craggy heights echoed'
p5988
(lp5989
g11
asS'qlucore omics explorer'
p5990
(lp5991
g30
asS'test set'
p5992
(lp5993
g14
asS'1940-2011\nsouth africa accounted'
p5994
(lp5995
g38
asS'</mknote> [variable]'
p5996
(lp5997
g14
asS'transportation fatalities'
p5998
(lp5999
g38
asS'zia-ul-haq'
p6000
(lp6001
g4
asS'@*\ninternational atomic energy authority'
p6002
(lp6003
g4
asS'gnu general public license version 2 cover'
p6004
(lp6005
g41
asS'the--a--a--\xc2\x94\n\n\xc2\x93poor\xc2\x94--\n\n\xc2\x93yes--poor'
p6006
(lp6007
g11
asS'data mining\npaw conference \xe2\x80\x93 predictive analytics world\nsdm conference \xe2\x80\x93 siam international conference'
p6008
(lp6009
g30
asS'digitisation project displayed'
p6010
(lp6011
g30
asS'dramatically increased data collection'
p6012
(lp6013
g30
asS'light consumer goods'
p6014
(lp6015
g25
asS'rand rebellion'
p6016
(lp6017
g38
asS'@end[itemize]\n\neast germany\n@begin[itemize]\nhead'
p6018
(lp6019
g4
asS'amiss\n\nmary\n\ntom contemplating\n\ndampened ardor\n\nyouth\n\nboyhood'
p6020
(lp6021
g11
asS'played robin hood'
p6022
(lp6023
g11
asS'outlier/change/deviation detection'
p6024
(lp6025
g30
asS'@*\ninternational coffee organisation'
p6026
(lp6027
g4
asS'1 april 1989\n   ty coon'
p6028
(lp6029
g41
asS'awful snug\nplace\xc2\x94--'
p6030
(lp6031
g11
asS'cooperate'
p6032
(lp6033
g7
ag8
asS'industrywide strike'
p6034
(lp6035
g38
asS'innovative applications'
p6036
(lp6037
g14
asS'central croatian highlands'
p6038
(lp6039
g25
asS'poor quality  coal'
p6040
(lp6041
g25
asS'south africa held'
p6042
(lp6043
g38
asS'strongly encourage researchers'
p6044
(lp6045
g14
asS'icde conference'
p6046
(lp6047
g30
asS'near-duplicate documents'
p6048
(lp6049
g14
asS'iii'
p6050
(lp6051
g7
ag8
asS'\xc2\x94\n\n\n\n\nchapter xxi\n\nvacation'
p6052
(lp6053
g11
asS'uranium deposits'
p6054
(lp6055
g38
asS'1994 cia world factbook'
p6056
(lp6057
g25
asS'bouvet island'
p6058
(lp6059
g25
asS'united states export administration regulations'
p6060
(lp6061
g41
asS'object code'
p6062
(lp6063
g41
asS'information processing'
p6064
(lp6065
g30
asS'american scientist'
p6066
(lp6067
g38
asS'uncomfortable routine devised'
p6068
(lp6069
g11
asS'yugoslav republic'
p6070
(lp6071
g25
asS'economy minister anders andersen'
p6072
(lp6073
g4
asS'ways\nincluding including checks'
p6074
(lp6075
g11
asS'conflict-of-law provisions'
p6076
(lp6077
g41
asS'microsoft academic search'
p6078
(lp6079
g30
asS'email contact links'
p6080
(lp6081
g11
asS'intellectual property rights needed'
p6082
(lp6083
g7
ag8
asS'^ mining licences'
p6084
(lp6085
g38
asS'agriculture minister'
p6086
(lp6087
g4
asS'magical thrill imparted'
p6088
(lp6089
g11
asS'reserved'
p6090
(lp6091
g7
ag8
asS'ore passes'
p6092
(lp6093
g38
asS'losing party responsible'
p6094
(lp6095
g41
asS'widely distributed test collections'
p6096
(lp6097
g14
asS'shrill jay swept'
p6098
(lp6099
g11
asS'data mining\nmldm conference \xe2\x80\x93 machine learning'
p6100
(lp6101
g30
asS'started processing uranium'
p6102
(lp6103
g38
asS'part thereof'
p6104
(lp6105
g41
asS'reserves'
p6106
(lp6107
g38
asS'\xc2\x92ll fetch _any_ wart'
p6108
(lp6109
g11
asS'proprietary licenses'
p6110
(lp6111
g30
asS'working conditions tolerable'
p6112
(lp6113
g38
asS'intellectual property laws'
p6114
(lp6115
g7
ag8
asS'fateful grip closing'
p6116
(lp6117
g11
asS'topics categories'
p6118
(lp6119
g14
asS'female line clear back'
p6120
(lp6121
g11
asS'permission'
p6122
(lp6123
g41
asS'preston martin'
p6124
(lp6125
g4
asS'send questions'
p6126
(lp6127
g14
asS'clear cold water close'
p6128
(lp6129
g11
asS'national bank'
p6130
(lp6131
g4
asS'prepare derivative works'
p6132
(lp6133
g7
ag8
asS'safe\nquarters\n\nchapter xxxiii'
p6134
(lp6135
g11
asS'feature selection'
p6136
(lp6137
g14
asS'predictive analytics \xe2\x80\x93'
p6138
(lp6139
g30
asS'\xd0\xa3\xd0\xba\xd1\x80\xd0\xb0\xd1\x97\xd0\xbd\xd1\x81\xd1\x8c\xd0\xba\xd0\xb0\nti\xe1\xba\xbfng vi\xe1\xbb\x87'
p6140
(lp6141
g30
asS'british virgin =\nislands'
p6142
(lp6143
g25
asS'license differs'
p6144
(lp6145
g41
asS'@*\nbrussels stock exchange/bourse'
p6146
(lp6147
g4
asS'@*\nmadrid stock exchange'
p6148
(lp6149
g4
asS'cultivable land'
p6150
(lp6151
g25
asS'evaluating text categorization'
p6152
(lp6153
g14
asS'noncommercial distribution'
p6154
(lp6155
g41
asS'training documents'
p6156
(lp6157
g14
asS'contributions distributed'
p6158
(lp6159
g7
ag8
asS'intelligent information retrieval'
p6160
(lp6161
g14
asS'found jim hollis acting'
p6162
(lp6163
g11
asS'training test divisions'
p6164
(lp6165
g14
asS'exchanges categories'
p6166
(lp6167
g14
asS'@*\nchicago mercantile exchange'
p6168
(lp6169
g4
asS'economic affairs\n        rudolf de korte'
p6170
(lp6171
g4
asS'direct'
p6172
(lp6173
g7
ag8
asS'2013 big booty check date values'
p6174
(lp6175
g38
asS'public\ndomain ebooks'
p6176
(lp6177
g11
asS'82 billion usd'
p6178
(lp6179
g38
asS'miscellaneous manubgfactured articles'
p6180
(lp6181
g25
asS'attached\nfull project gutenberg-tm license'
p6182
(lp6183
g11
asS'blue light flit\npast'
p6184
(lp6185
g11
asS'knowledge discovery[38]\nrexer analytics data miner surveys'
p6186
(lp6187
g30
asS'lewis received'
p6188
(lp6189
g4
asS'machine learning algorithms written'
p6190
(lp6191
g30
asS'diamond fields'
p6192
(lp6193
g38
asS'covers machine learning'
p6194
(lp6195
g30
asS'modhayes split'
p6196
(lp6197
g14
asS'pliant toes closed'
p6198
(lp6199
g11
asS'important sector'
p6200
(lp6201
g25
asS'commerce minister narain dutt tiwari'
p6202
(lp6203
g4
asS'inclined reefs/orebodies prevents mechanisation'
p6204
(lp6205
g38
asS'free status'
p6206
(lp6207
g41
asS'makes passes'
p6208
(lp6209
g41
asS'flow\xc2\x92ry _beds_'
p6210
(lp6211
g11
asS'strongly encourage'
p6212
(lp6213
g14
asS'^ geothermal gradient'
p6214
(lp6215
g38
asS'salt lake city'
p6216
(lp6217
g11
asS'@end[itemize]\n\ndenmark\n@begin[itemize]\n   prime minister poul schlueter'
p6218
(lp6219
g4
asS'enable data mining'
p6220
(lp6221
g30
asS'western=\n  sahara'
p6222
(lp6223
g25
asS'women\nvisited aunt polly'
p6224
(lp6225
g11
asS'categorization system'
p6226
(lp6227
g14
asS'south african mining industry'
p6228
(lp6229
g38
asS'climbing\nmont blanc'
p6230
(lp6231
g11
asS'sections vi'
p6232
(lp6233
g14
asS'official project gutenberg-tm web site'
p6234
(lp6235
g11
asS'project gutenberg-tm\n\nproject gutenberg-tm'
p6236
(lp6237
g11
asS'located'
p6238
(lp6239
g38
asS'</reuters> tags serve'
p6240
(lp6241
g14
asS'amit singhal'
p6242
(lp6243
g14
asS'wide crescent lopped'
p6244
(lp6245
g11
asS'cool\ngray dawn'
p6246
(lp6247
g11
asS'component assembly'
p6248
(lp6249
g25
asS'initial developer includes'
p6250
(lp6251
g41
asS'missing data'
p6252
(lp6253
g30
asS'@end[itemize]\n\nnigeria\n@begin[itemize]\n   president general ibrahim babangida'
p6254
(lp6255
g4
asS'original \xc2\x93plain\nvanilla ascii\xc2\x94'
p6256
(lp6257
g11
asS'effectiveness results'
p6258
(lp6259
g14
asS'complete machine-readable copy'
p6260
(lp6261
g41
asS'covered'
p6262
(lp6263
g7
ag41
ag8
asS'2004 java data mining standard'
p6264
(lp6265
g30
asS'chromium accounted'
p6266
(lp6267
g38
asS'000 metric tons'
p6268
(lp6269
g38
asS'combines covered software'
p6270
(lp6271
g41
asS'tech industry'
p6272
(lp6273
g30
asS'originator'
p6274
(lp6275
g7
ag8
asS'uneven\ndistribution'
p6276
(lp6277
g14
asS'writing david lewis'
p6278
(lp6279
g14
asS'substantial  military deliveries'
p6280
(lp6281
g25
asS'arab =\ncountries'
p6282
(lp6283
g25
asS'losses relating'
p6284
(lp6285
g7
ag8
asS'sufficient copyright rights'
p6286
(lp6287
g7
ag8
asS'needle\ncarried white thread'
p6288
(lp6289
g11
asS'consumer goods'
p6290
(lp6291
g25
asS'including coking  coal'
p6292
(lp6293
g25
asS'chapter xiii\n\ntom\xc2\x92'
p6294
(lp6295
g11
asS'mexican peso'
p6296
(lp6297
g4
asS'heavily subsidized =\nsector produces  fruit'
p6298
(lp6299
g25
asS'binary feature values'
p6300
(lp6301
g14
asS'@*\noslo stock exchange/bourse'
p6302
(lp6303
g4
asS'original reuters materials distributed'
p6304
(lp6305
g14
asS'simple version'
p6306
(lp6307
g30
asS'data file production'
p6308
(lp6309
g14
asS'straggling foot-passengers disappeared'
p6310
(lp6311
g11
asS'contents constitute'
p6312
(lp6313
g41
asS'tropical =\nproduce'
p6314
(lp6315
g25
asS'billion year'
p6316
(lp6317
g38
asS'large net food importer'
p6318
(lp6319
g25
asS'south african mineworkers'
p6320
(lp6321
g38
asS'ha\xc2\x92nted house'
p6322
(lp6323
g11
asS'positive examples'
p6324
(lp6325
g14
asS'works based'
p6326
(lp6327
g41
asS'permit incorporating'
p6328
(lp6329
g41
asS'corpus-based research'
p6330
(lp6331
g14
asS'foreign expatriates'
p6332
(lp6333
g38
asS'@*\nkuala lumpur stock exchange'
p6334
(lp6335
g4
asS'sartzetakis'
p6336
(lp6337
g4
asS'president karl otto poehl'
p6338
(lp6339
g4
asS'prime minister nikolai ryzhkov'
p6340
(lp6341
g4
asS'judge grants summary judgment'
p6342
(lp6343
g30
asS'parties'
p6344
(lp6345
g41
asS'visual data mining & predictive analysis'
p6346
(lp6347
g30
asS'economy minister robert graf'
p6348
(lp6349
g4
asS'french franc'
p6350
(lp6351
g4
asS'weird flash turned\nnight'
p6352
(lp6353
g11
asS'@end[itemize]\n\nthailand\n@begin[itemize]\n   president general prem tinsulanonda'
p6354
(lp6355
g4
asS'primary highest quality conference'
p6356
(lp6357
g30
asS'20 august 2012\njump'
p6358
(lp6359
g38
asS'finance corporation\nreferences[edit]\njump'
p6360
(lp6361
g38
asS'additions'
p6362
(lp6363
g7
ag8
asS'special'
p6364
(lp6365
g7
ag41
ag8
asS'central bank governor erik hoffmeyer'
p6366
(lp6367
g4
asS'collection\nseptember'
p6368
(lp6369
g14
asS'oil minister gholamreza aqazadeh'
p6370
(lp6371
g4
asS'main text'
p6372
(lp6373
g14
asS'defend'
p6374
(lp6375
g7
ag8
asS'loose rock'
p6376
(lp6377
g38
asS'orange river'
p6378
(lp6379
g38
asS'enforceable'
p6380
(lp6381
g7
ag8
asS'data produced'
p6382
(lp6383
g30
asS'analytics magazine'
p6384
(lp6385
g30
asS'safety belts'
p6386
(lp6387
g38
asS'multiple categories'
p6388
(lp6389
g14
asS'produced'
p6390
(lp6391
g14
asS'offering access'
p6392
(lp6393
g41
asS'positive\nexamples'
p6394
(lp6395
g14
asS'worth twenty dollars apiece--'
p6396
(lp6397
g11
asS'industrial supplies'
p6398
(lp6399
g25
asS'tinsulanonda'
p6400
(lp6401
g4
asS'actual learning'
p6402
(lp6403
g30
asS'operating mines'
p6404
(lp6405
g38
asS'coal future'
p6406
(lp6407
g38
asS'@*\nwinnipeg commodity exchange'
p6408
(lp6409
g4
asS'human\nindexer decided'
p6410
(lp6411
g14
asS'agricultural processing =\nindustries'
p6412
(lp6413
g25
asS'control'
p6414
(lp6415
g7
ag41
ag8
asS'zealand\n@begin[itemize]\n   prime minister david lange'
p6416
(lp6417
g4
asS'york'
p6418
(lp6419
g7
ag8
asS'individually obtain patent licenses'
p6420
(lp6421
g41
asS'knowledge mining'
p6422
(lp6423
g30
asS'@*\ninternational tin council'
p6424
(lp6425
g4
asS'learning algorithms'
p6426
(lp6427
g14
asS'defining training set splits similar'
p6428
(lp6429
g14
asS'defining'
p6430
(lp6431
g14
asS'afternoon becky thatcher found'
p6432
(lp6433
g11
asS'databases\nedm conference \xe2\x80\x93 international conference'
p6434
(lp6435
g30
asS'determining'
p6436
(lp6437
g7
ag8
asS'learning algorithm'
p6438
(lp6439
g14
asS'poor quality soils'
p6440
(lp6441
g25
asS'european countries'
p6442
(lp6443
g25
asS'projects\nwikimedia commons\nlanguages\n\xd8\xa7\xd9\x84\xd8\xb9\xd8\xb1\xd8\xa8\xd9\x8a\xd8\xa9\n\xe0\xa6\x85\xe0\xa6\xb8\xe0\xa6\xae\xe0\xa7\x80\xe0\xa6\xaf\xe0\xa6\xbc\xe0\xa6\xbe\naz\xc9\x99rbaycanca\n\xe0\xa6\xac\xe0\xa6\xbe\xe0\xa6\x82\xe0\xa6\xb2\xe0\xa6\xbe\n\xd0\x91\xd1\x8a\xd0\xbb\xd0\xb3\xd0\xb0\xd1\x80\xd1\x81\xd0\xba\xd0\xb8\ncatal\xc3\xa0\n\xc4\x8c'
p6444
(lp6445
g30
asS'accident statistics\njump'
p6446
(lp6447
g38
asS'1960 sharpeville massacre'
p6448
(lp6449
g38
asS'afghanistan\nalbania \nalgeria \namerican-samoa\nandorra \nangola  \nanguilla\nantigua \nargentina  \naruba\naustralia  \naustria \nbahamas \nbahrain \nbangladesh \nbarbados\nbelgium \nbelize  \nbenin\nbermuda \nbhutan  \nbolivia \nbotswana\nbrazil  \nbritish-virgin-islands\nbrunei  \nbulgaria\nburkina-faso\nburma\nburundi \ncameroon\ncanada  \ncape-verde \ncayman-islands\ncentral-african-republic\nchad \nchile\nchina\ncolombia\ncongo\ncosta-rica \ncuba \ncyprus  \nczechoslovakia\ndenmark\ndjibouti\ndominica\ndominican-republic\neast-germany\necuador \negypt\nel-salvador\nequatorial-guinea\nethiopia\nfiji \nfinland \nfrance  \nfrench-guiana\ngabon\ngambia  \nghana\ngibraltar  \ngreece  \ngrenada \nguadeloupe \nguam \nguatemala  \nguinea  \nguinea-bissau\nguyana  \nhaiti\nhonduras\nhong-kong  \nhungary \niceland \nindia\nindonesia  \niran \niraq \nireland \nisrael  \nitaly\nivory-coast\njamaica \njapan\njordan  \nkampuchea  \nkenya\nkuwait  \nlaos \nlebanon \nlesotho \nliberia \nlibya\nliechtenstein\nluxembourg \nmacao\nmadagascar \nmalawi  \nmalaysia\nmali \nmalta\nmartinique \nmauritania \nmauritius  \nmexico  \nmonaco  \nmorocco \nmozambique \nnamibia \nnepal\nnetherlands\nnetherlands-antilles\nnew-caledonia\nnew-zealand\nnicaragua  \nniger\nnigeria \nnorth-korea\nnorway  \noman \npakistan\npanama  \npapua-new-guinea\nparaguay\nperu \nphilippines\npoland  \nportugal\nqatar\nromania \nrwanda  \nsaudi-arabia\nsenegal \nseychelles \nsierra-leone\nsingapore  \nsomalia \nsouth-africa\nsouth-korea\nspain\nsri-lanka  \nsudan\nsuriname\nswaziland  \nsweden  \nswitzerland\nsyria\ntaiwan  \ntanzania\nthailand\ntogo \ntonga\ntrinidad-tobago\ntunisia \nturkey  \nuae  \nuganda  \nuk\nuruguay \nus-virgin-islands\nusa\nussr\nvanuatu \nvatican \nvenezuela  \nvietnam \nwest-germany\nwestern-samoa\nyemen-arab-republic\nyemen-demo-republic\nyugoslavia \nzaire\nzambia  \nzimbabwe'
p6450
(lp6451
g277
asS'transfer'
p6452
(lp6453
g7
ag8
asS'safe working practice'
p6454
(lp6455
g38
asS'@end[itemize]\n\nturkey\n@begin[itemize]\n   president kenan evren'
p6456
(lp6457
g4
asS'facilitate'
p6458
(lp6459
g7
ag8
asS'machine  building'
p6460
(lp6461
g25
asS'details type `show'
p6462
(lp6463
g41
asS'[1] data mining'
p6464
(lp6465
g30
asS'@end[itemize]\n\ncuba\n@begin[itemize]\nfidel castro'
p6466
(lp6467
g4
asS'tom sawyer swears'
p6468
(lp6469
g11
asS'lawrence erlbaum\nexternal links[edit]'
p6470
(lp6471
g30
asS'ship  repair'
p6472
(lp6473
g25
asS'gaudy piratical uniform'
p6474
(lp6475
g11
asS'occurrences'
p6476
(lp6477
g14
asS'prime minister yasuhiro nakasone'
p6478
(lp6479
g4
asS'separate works'
p6480
(lp6481
g41
asS'combined work based'
p6482
(lp6483
g41
asS'palm kernels'
p6484
(lp6485
g25
asS'manubgfactured consumer goods'
p6486
(lp6487
g25
asS'but--\n\ntom withered'
p6488
(lp6489
g11
asS'bright\njump'
p6490
(lp6491
g38
asS'general good time\n\ndemoralized\n\njoe harper'
p6492
(lp6493
g11
asS'del caribe exportadores de azucar\n[group'
p6494
(lp6495
g4
asS'norfolk island pine =\nseed'
p6496
(lp6497
g25
asS'book data mining'
p6498
(lp6499
g30
asS'data mining\nkernel machine'
p6500
(lp6501
g30
asS'patent infringement'
p6502
(lp6503
g41
asS'main article'
p6504
(lp6505
g38
asS'project gutenberg\nliterary archive foundation'
p6506
(lp6507
g11
asS'lonmin'
p6508
(lp6509
g38
asS'newby chief executive'
p6510
(lp6511
g11
asS'examples\ninclude'
p6512
(lp6513
g14
asS'advanced analytics'
p6514
(lp6515
g30
asS'textual material'
p6516
(lp6517
g14
asS'siam'
p6518
(lp6519
g30
asS'data mining solutions'
p6520
(lp6521
g30
asS'principal products  =\ninclude bananas'
p6522
(lp6523
g25
asS'lights dimly revealing'
p6524
(lp6525
g11
asS'ground truth'
p6526
(lp6527
g4
asS'sought desolate\nplaces'
p6528
(lp6529
g11
asS'tromelin island'
p6530
(lp6531
g25
asS'refined petroleum =\nproducts'
p6532
(lp6533
g25
asS'uranium mining'
p6534
(lp6535
g38
asS'modification follow'
p6536
(lp6537
g41
asS'natural language toolkit'
p6538
(lp6539
g30
asS'acquire'
p6540
(lp6541
g7
ag8
asS'full project gutenberg-tm\nlicense terms'
p6542
(lp6543
g11
asS'notices'
p6544
(lp6545
g41
asS'@end[itemize]\n\n\nsweden\n@begin[itemize]\n   prime minister ingvar carlsson'
p6546
(lp6547
g4
asS'agricultural  =\nproducts'
p6548
(lp6549
g25
asS'relying heavily'
p6550
(lp6551
g14
asS'pleasantly remind adults'
p6552
(lp6553
g11
asS'equitable basis'
p6554
(lp6555
g41
asS'federal courts'
p6556
(lp6557
g41
asS'contributor grants'
p6558
(lp6559
g7
ag8
asS'central bank governor hermud skaanland'
p6560
(lp6561
g4
asS'collectively'
p6562
(lp6563
g7
ag8
asS'retrieved 21 november 2016'
p6564
(lp6565
g38
asS'project gutenberg license included'
p6566
(lp6567
g11
asS'steeg'
p6568
(lp6569
g4
asS'placer  =\ndeposits'
p6570
(lp6571
g25
asS'data set'
p6572
(lp6573
g30
ag14
asS'knowledge discovery'
p6574
(lp6575
g30
asS'cocon=\nut products'
p6576
(lp6577
g25
asS'reproduction'
p6578
(lp6579
g7
ag8
asS'finance minister jaromir zak'
p6580
(lp6581
g4
asS'depths unattainable'
p6582
(lp6583
g38
asS'warranty\n\n11'
p6584
(lp6585
g41
asS'aquino'
p6586
(lp6587
g4
asS'total 674 categories mentioned'
p6588
(lp6589
g4
asS'fifteenth annual international acm sigir conference'
p6590
(lp6591
g14
asS'nuclear plants'
p6592
(lp6593
g38
asS'document-internal tags'
p6594
(lp6595
g14
asS'thy flowery\nwoods'
p6596
(lp6597
g11
asS'small livestock sector  includes =\ncattle'
p6598
(lp6599
g25
asS'selling prescription information'
p6600
(lp6601
g30
asS'blix'
p6602
(lp6603
g4
asS'trade policy willy de clercq'
p6604
(lp6605
g4
asS'assurances'
p6606
(lp6607
g7
ag8
asS'light assembly industries =\nbased'
p6608
(lp6609
g25
asS'trust territory'
p6610
(lp6611
g25
asS'mutual economic assistance'
p6612
(lp6613
g4
asS'kilometre depth'
p6614
(lp6615
g38
asS'promptly notify'
p6616
(lp6617
g7
ag8
asS'wikipedia\xc2\xae'
p6618
(lp6619
g38
asS'legal category'
p6620
(lp6621
g14
asS'agriculture minister iris rezende'
p6622
(lp6623
g4
asS'adequate =\nrainfall'
p6624
(lp6625
g25
asS'forest products'
p6626
(lp6627
g25
asS'larger works'
p6628
(lp6629
g41
asS'reuters tags'
p6630
(lp6631
g14
asS'united =\nkingdom'
p6632
(lp6633
g25
asS'central bank governor alhaji abdul ahmed'
p6634
(lp6635
g4
asS'motor =\nvehicle assembly'
p6636
(lp6637
g25
asS'small-size =\nfarms predominate'
p6638
(lp6639
g25
asS'worldwide'
p6640
(lp6641
g7
ag8
asS'research purposes'
p6642
(lp6643
g14
asS'language engineering tool'
p6644
(lp6645
g30
asS'discovery algorithms'
p6646
(lp6647
g30
asS'statistical natural language processing'
p6648
(lp6649
g30
asS'tuple\nrepresentation'
p6650
(lp6651
g14
asS'single product'
p6652
(lp6653
g41
asS'rare earth =\noxide'
p6654
(lp6655
g25
asS'copyright law'
p6656
(lp6657
g41
asS'ghosts\n\nchapter xxvi'
p6658
(lp6659
g11
asS'uk copyright law'
p6660
(lp6661
g30
asS'project\ngutenberg'
p6662
(lp6663
g11
asS'anonymous ftp'
p6664
(lp6665
g14
asS'----------\nnotice pursuant'
p6666
(lp6667
g41
asS'finance minister otto stich'
p6668
(lp6669
g4
asS'project gutenberg web pages'
p6670
(lp6671
g11
asS'including grains'
p6672
(lp6673
g25
asS'yiming yang'
p6674
(lp6675
g14
asS'deadly combination'
p6676
(lp6677
g38
asS'text'
p6678
(lp6679
g30
ag14
asS'production\njump'
p6680
(lp6681
g38
asS'considerable aid'
p6682
(lp6683
g14
asS'contemptuous smile flitted'
p6684
(lp6685
g11
asS'economic advisers'
p6686
(lp6687
g4
asS'widow douglas\xc2\x92\nprotection introduced'
p6688
(lp6689
g11
asS'information\nretrieval'
p6690
(lp6691
g14
asS'gold exports provided sufficient capital'
p6692
(lp6693
g38
asS'isbn 0-387-95284-5\nliu'
p6694
(lp6695
g30
asS'wake island'
p6696
(lp6697
g25
asS'agrees'
p6698
(lp6699
g7
ag8
asS'sgml format'
p6700
(lp6701
g14
asS'litigation'
p6702
(lp6703
g7
ag8
asS'libyan leader'
p6704
(lp6705
g4
asS'ieee paper'
p6706
(lp6707
g4
asS'knowledge'
p6708
(lp6709
g7
ag8
ag14
asS'electronic\nworks'
p6710
(lp6711
g11
asS'computer decision support system'
p6712
(lp6713
g30
asS'fish catch =\nreached'
p6714
(lp6715
g25
asS'interactive mode'
p6716
(lp6717
g41
asS'complete agreement'
p6718
(lp6719
g41
asS'finance minister gustavo saberbein chevalier'
p6720
(lp6721
g4
asS'annual fish catch'
p6722
(lp6723
g25
asS'comprehensive data analytics framework'
p6724
(lp6725
g30
asS'shallower mine'
p6726
(lp6727
g38
asS've=\ngetables'
p6728
(lp6729
g25
asS'ftp sites maintained'
p6730
(lp6731
g14
asS'accompanying delays worked'
p6732
(lp6733
g11
asS'hypothetical commands `show'
p6734
(lp6735
g41
asS'dtd file lewis'
p6736
(lp6737
g14
asS'cuba'
p6738
(lp6739
g4
asS'statistical analysis & data mining applications'
p6740
(lp6741
g30
asS'test splits'
p6742
(lp6743
g14
asS'south africaindustry'
p6744
(lp6745
g38
asS'europe[edit]\ndue'
p6746
(lp6747
g30
asS'port louis'
p6748
(lp6749
g25
asS'small quantities'
p6750
(lp6751
g25
asS'jpg'
p6752
(lp6753
S'sample\\people.jpg'
p6754
aS'C:\\bharat\\Work\\OneDrive - NCSU\\github\\tag_based_file_manager\\sample\\people.jpg'
p6755
asS'exchanges'
p6756
(lp6757
g14
asS'central bank governor rolf kullberg'
p6758
(lp6759
g4
asS'central bank governor mohammed salaheddin hamid'
p6760
(lp6761
g4
asS'infringements caused'
p6762
(lp6763
g41
asS'structural concrete =\nproducts'
p6764
(lp6765
g25
asS'domain\nknowledge'
p6766
(lp6767
g14
asS'copyright notice'
p6768
(lp6769
g41
asS'found joe\nharper studying'
p6770
(lp6771
g11
asS'educational corporation organized'
p6772
(lp6773
g11
asS'labor force'
p6774
(lp6775
g25
asS'automated\ntraining'
p6776
(lp6777
g14
asS'data cleaning removes'
p6778
(lp6779
g30
asS'category sets'
p6780
(lp6781
g14
asS'industry minister jose concepcion'
p6782
(lp6783
g4
asS'industrial goods'
p6784
(lp6785
g25
asS'despair\n\nchapter xxxi'
p6786
(lp6787
g11
asS'\xc2\x94\n\ntom urged--huck held back'
p6788
(lp6789
g11
asS'evren'
p6790
(lp6791
g4
asS'entire risk'
p6792
(lp6793
g41
asS'kdnuggets methodology poll'
p6794
(lp6795
g30
asS'finance minister carlos solchaga'
p6796
(lp6797
g4
asS'imports=\n major share'
p6798
(lp6799
g25
asS'part series'
p6800
(lp6801
g30
asS'@*\ninternational lead'
p6802
(lp6803
g4
asS'version 1'
p6804
(lp6805
g41
asS'module'
p6806
(lp6807
g41
asS'project\ngutenberg-tm electronic works'
p6808
(lp6809
g11
asS'gold\n1'
p6810
(lp6811
g38
asS'reserve bank'
p6812
(lp6813
g4
asS'information extraction'
p6814
(lp6815
g30
asS'reuters-21578 collection'
p6816
(lp6817
g14
asS'[25] harmony gold mining'
p6818
(lp6819
g38
asS'original reuters corpus'
p6820
(lp6821
g14
asS'mineral commodity summaries'
p6822
(lp6823
g38
asS'distributing project gutenberg-tm electronic works'
p6824
(lp6825
g11
asS'presently jeff thatcher hove'
p6826
(lp6827
g11
asS'blasting smoke'
p6828
(lp6829
g38
asS'765 unused documents'
p6830
(lp6831
g14
asS'content analysis'
p6832
(lp6833
g14
asS'communist party politburo'
p6834
(lp6835
g4
asS'534-531 [1]\njump'
p6836
(lp6837
g38
asS'state'
p6838
(lp6839
g7
ag41
ag8
asS'}\n\n@inproceedings{lewis92b'
p6840
(lp6841
g14
asS'carlsson'
p6842
(lp6843
g4
asS'power production'
p6844
(lp6845
g38
asS'reuters-22173\ncollection'
p6846
(lp6847
g14
asS'similar metals'
p6848
(lp6849
g38
asS'absolutely clear'
p6850
(lp6851
g41
asS'motor vehicle  parts'
p6852
(lp6853
g25
asS'industrial consumer  =\ngoods'
p6854
(lp6855
g25
asS'source code'
p6856
(lp6857
g7
ag41
ag8
asS'^ charlotte mathews'
p6858
(lp6859
g38
asS'python programming language\ntorch'
p6860
(lp6861
g30
asS'light consumer  =\ngoods'
p6862
(lp6863
g25
asS'british indian ocean =\nterritory'
p6864
(lp6865
g25
asS'small  =\nnumbers'
p6866
(lp6867
g25
asS'make exceptions'
p6868
(lp6869
g41
asS'lawsuit'
p6870
(lp6871
g7
ag8
asS'staff howard baker'
p6872
(lp6873
g4
asS'fish  catch =\npotential'
p6874
(lp6875
g25
asS'commands'
p6876
(lp6877
g41
asS'[6] south africa'
p6878
(lp6879
g38
asS'wide spread\npublic support'
p6880
(lp6881
g11
asS'million metric tons annually'
p6882
(lp6883
g25
asS'attached'
p6884
(lp6885
g8
asS'knowledge engineering review'
p6886
(lp6887
g30
asS'parties provide'
p6888
(lp6889
g41
asS'strong interest'
p6890
(lp6891
g14
asS'finance minister mailson nobrega'
p6892
(lp6893
g4
asS'participant terminate prospectively'
p6894
(lp6895
g41
asS'wood chip  production'
p6896
(lp6897
g25
asS'chemical information'
p6898
(lp6899
g30
asS'data science'
p6900
(lp6901
g30
asS'licensable'
p6902
(lp6903
g41
asS'documentation distributed'
p6904
(lp6905
g7
ag8
asS'extent permitted'
p6906
(lp6907
g41
asS'latin american'
p6908
(lp6909
g4
asS'brazilian cruzado'
p6910
(lp6911
g4
asS'respect'
p6912
(lp6913
g7
ag8
asS'[dead link]\njump'
p6914
(lp6915
g38
asS'temporarily trapped underground'
p6916
(lp6917
g38
asS'pair appears'
p6918
(lp6919
g14
asS'applies'
p6920
(lp6921
g41
asS'problems introduced'
p6922
(lp6923
g41
asS'economy minister lee ta-hai'
p6924
(lp6925
g4
asS'old-fashioned western kind'
p6926
(lp6927
g11
asS'prime minister rajiv gandhi'
p6928
(lp6929
g4
asS'revoked \xe2\x80\x93 mantashe'
p6930
(lp6931
g38
asS'business day live'
p6932
(lp6933
g38
asS'zinc study group'
p6934
(lp6935
g4
asS'cousin mary danced'
p6936
(lp6937
g11
asS'prime minister zhao ziyang'
p6938
(lp6939
g4
asS'analytics \xe2\x80\x93'
p6940
(lp6941
g30
asS'@end[itemize]\n\nindonesia\n@begin[itemize]\n   president general suharto'
p6942
(lp6943
g4
asS'statistical learning'
p6944
(lp6945
g30
asS'academic press'
p6946
(lp6947
g30
asS'choose'
p6948
(lp6949
g7
ag8
asS'\xc2\x93rebecca thatcher\xc2\x94 [tom glanced'
p6950
(lp6951
g11
asS'industrial =\ncenter'
p6952
(lp6953
g25
asS'collective works based'
p6954
(lp6955
g41
asS'declining production'
p6956
(lp6957
g38
asS'c'
(lp6958
S'sample\\example.c'
p6959
aS'C:\\bharat\\Work\\OneDrive - NCSU\\github\\tag_based_file_manager\\sample\\example.c'
p6960
asS'indian war\n\nchapter xvii'
p6961
(lp6962
g11
asS'uranium-rich south africa good environment'
p6963
(lp6964
g38
asS'mineral products'
p6965
(lp6966
g25
asS'covered software'
p6967
(lp6968
g41
asS'calci=\num carbide'
p6969
(lp6970
g25
asS'distribution conditions'
p6971
(lp6972
g41
asS'finance minister palle simonsen'
p6973
(lp6974
g4
asS'ethical issues'
p6975
(lp6976
g30
asS'rural development minister gurdial singh dhillon'
p6977
(lp6978
g4
asS'covered software prove defective'
p6979
(lp6980
g41
asS'third-party machine-learning packages written'
p6981
(lp6982
g30
asS'modification\n\n0'
p6983
(lp6984
g41
asS'slightly lightened\nweight'
p6985
(lp6986
g11
asS'non-infringement'
p6987
(lp6988
g7
ag8
asS'military history'
p6989
(lp6990
g38
asS'categories \ncategory set  categories'
p6991
(lp6992
g14
asS'offshore islands grow  olives'
p6993
(lp6994
g25
asS'offerings greatly helped'
p6995
(lp6996
g11
asS'----------------------------------------------------------------------------------------------------\n\ncommon public license version 0'
p6997
(lp6998
g8
asS'economy minister youssri mustapha'
p6999
(lp7000
g4
asS'husak'
p7001
(lp7002
g4
asS'stared around--smiled grimly'
p7003
(lp7004
g11
asS'lietuvi\xc5\xb3\nmagyar\n\xd0\x9c\xd0\xb0\xd0\xba\xd0\xb5\xd0\xb4\xd0\xbe\xd0\xbd\xd1\x81\xd0\xba\xd0\xb8\n\xe0\xb4\xae\xe0\xb4\xb2\xe0\xb4\xaf\xe0\xb4\xbe\xe0\xb4\xb3\xe0\xb4\x82\n\xe0\xa4\xae\xe0\xa4\xb0\xe0\xa4\xbe\xe0\xa4\xa0\xe0\xa5\x80\n\xd0\x9c\xd0\xbe\xd0\xbd\xd0\xb3\xd0\xbe\xd0\xbb\n\xe1\x80\x99\xe1\x80\xbc\xe1\x80\x94\xe1\x80\xba\xe1\x80\x99\xe1\x80\xac\xe1\x80\x98\xe1\x80\xac\xe1\x80\x9e\xe1\x80\xac\nnederlands\n\xe6\x97\xa5\xe6\x9c\xac\xe8\xaa\x9e\nnorsk bokm\xc3\xa5'
p7005
(lp7006
g30
asS'spires fade fast'
p7007
(lp7008
g11
asS'including negligence'
p7009
(lp7010
g7
ag41
ag8
asS'tar'
p7011
(lp7012
g14
asS'@*\n@end[format]\n@blankspace[3 lines]\n________________________________________________________________\n@heading[exchange codes'
p7013
(lp7014
g4
asS'miles underground'
p7015
(lp7016
g38
asS'high number'
p7017
(lp7018
g38
asS'java open-source project'
p7019
(lp7020
g30
asS'hardware'
p7021
(lp7022
g7
ag8
asS'human curiosity presently began'
p7023
(lp7024
g11
asS'avi'
p7025
(lp7026
S'sample\\test.avi'
p7027
aS'C:\\bharat\\Work\\OneDrive - NCSU\\github\\tag_based_file_manager\\sample\\test.avi'
p7028
asS'major food =\ncorn'
p7029
(lp7030
g25
asS'wikimedia commons'
p7031
(lp7032
g30
asS'regression'
p7033
(lp7034
g30
asS'digital data'
p7035
(lp7036
g30
asS'900 gold fields jobs'
p7037
(lp7038
g38
asS'chidanand apt{'
p7039
(lp7040
g14
asS'application sourcecode'
p7041
(lp7042
g30
asS'sam dobbins'
p7043
(lp7044
g14
asS'wider data set'
p7045
(lp7046
g30
asS'sgml\ntags'
p7047
(lp7048
g14
asS'linked independent module'
p7049
(lp7050
g41
asS'assign correctly'
p7051
(lp7052
g14
asS'executable runs'
p7053
(lp7054
g41
asS'stop foolin\xc2\x92 roun\xc2\x92 wid'
p7055
(lp7056
g11
asS'notwithstanding section 2'
p7057
(lp7058
g41
asS'initial agreement steward'
p7059
(lp7060
g7
ag8
asS'satisfactory reference'
p7061
(lp7062
g38
asS'@end[itemize]\n\n\n\njapan\n@begin[itemize]\n   prime minister noboru takeshita'
p7063
(lp7064
g4
asS'africa\ncategories'
p7065
(lp7066
g38
asS'long white hair flowed'
p7067
(lp7068
g11
asS'court requires'
p7069
(lp7070
g7
ag8
asS'south sandwich islands'
p7071
(lp7072
g25
asS'support vector machines'
p7073
(lp7074
g30
asS'redistributing project gutenberg-tm\nelectronic works\n\n1'
p7075
(lp7076
g11
asS'administrative =\ncenter'
p7077
(lp7078
g25
asS'effect'
p7079
(lp7080
g41
asS'finance minister ferdinand lacina'
p7081
(lp7082
g4
asS'machine learning material'
p7083
(lp7084
g30
asS'largest producer[4]'
p7085
(lp7086
g38
asS'feature\ndistribution'
p7087
(lp7088
g14
asS'damages arising'
p7089
(lp7090
g41
asS'mistake made\n\nchapter viii'
p7091
(lp7092
g11
asS'kimberley'
p7093
(lp7094
g38
asS'largest primary producers'
p7095
(lp7096
g38
asS'web pages'
p7097
(lp7098
g14
asS'@end[itemize]\n\nswitzerland\n@begin[itemize]\n   economy minister jean-pascal delamuraz'
p7099
(lp7100
g4
asS'state erich honecker'
p7101
(lp7102
g4
asS'learnt long\nago'
p7103
(lp7104
g11
asS'tautona mine'
p7105
(lp7106
g38
asS'finance minister jaime ongpin'
p7107
(lp7108
g4
asS'identify multiple groups'
p7109
(lp7110
g30
asS'wholesale price index'
p7111
(lp7112
g4
asS'arising'
p7113
(lp7114
g7
ag8
asS'hide-and-seek frolicking began'
p7115
(lp7116
g11
asS'liability incurred'
p7117
(lp7118
g41
asS'topics fields'
p7119
(lp7120
g14
asS'marc ringuette'
p7121
(lp7122
g14
asS'negligence'
p7123
(lp7124
g41
asS'day mightily tormented tom\xc2\x92'
p7125
(lp7126
g11
asS'reuters-21578 text\ncategorization test collection'
p7127
(lp7128
g14
asS'deep gold mines'
p7129
(lp7130
g38
asS'obtain'
p7131
(lp7132
g7
ag41
ag8
asS'chapter ii\n\nsaturday morning'
p7133
(lp7134
g11
asS'finance minister vicente jayme'
p7135
(lp7136
g4
asS'chapter iii\n\ntom presented'
p7137
(lp7138
g11
asS'patent license'
p7139
(lp7140
g7
ag41
ag8
asS'offering equivalent access'
p7141
(lp7142
g41
asS'validly granted'
p7143
(lp7144
g41
asS'years'
p7145
(lp7146
g38
asS'represent\ndocuments'
p7147
(lp7148
g14
asS'distributed subject'
p7149
(lp7150
g7
ag8
asS'peculiarly afflicting sermon'
p7151
(lp7152
g11
asS'huck\ndon\xc2\x92t--_they_ don\xc2\x92'
p7153
(lp7154
g11
asS'statistical methods'
p7155
(lp7156
g30
asS'accompanying program'
p7157
(lp7158
g7
ag8
asS'reuters-21578 data'
p7159
(lp7160
g14
asS'entire'
p7161
(lp7162
g41
asS'unusual data records'
p7163
(lp7164
g30
asS'unsafe mining'
p7165
(lp7166
g38
asS'andorra la vella'
p7167
(lp7168
g25
asS'famous fried-egg feast'
p7169
(lp7170
g11
asS'copyright interest'
p7171
(lp7172
g41
asS'add'
p7173
(lp7174
g41
asS'boisterous\nwinds unanimously'
p7175
(lp7176
g11
asS'5'
(lp7177
g7
ag8
asS'business partners'
p7178
(lp7179
g7
ag8
asS'reformed'
p7180
(lp7181
g7
ag8
asS'details'
p7182
(lp7183
g41
asS'annual conference'
p7184
(lp7185
g14
asS'school\n\nliterature\n\ntom declaims\n\nexamination evening'
p7186
(lp7187
g11
asS'provisions'
p7188
(lp7189
g7
ag41
ag8
asS'south african president'
p7190
(lp7191
g38
asS'mikulic'
p7192
(lp7193
g4
asS'@end[itemize]\n\npoland\n@begin[itemize]\nhead'
p7194
(lp7195
g4
asS'element\ndelimited'
p7196
(lp7197
g14
asS'important sections'
p7198
(lp7199
g14
asS'splits based'
p7200
(lp7201
g14
asS'population pastoral nomads  =\nherding goats'
p7202
(lp7203
g25
asS'june 1991\n\n\ncopyright'
p7204
(lp7205
g41
asS'thing appealed strongly'
p7206
(lp7207
g11
asS'secret\n\nchapter xviii'
p7208
(lp7209
g11
asS'project gutenberg-tm works calculated'
p7210
(lp7211
g11
asS'climax\n\nchapter vi'
p7212
(lp7213
g11
asS'@*\ngrupo de paises latinoamericanos'
p7214
(lp7215
g4
asS'14704/6746 split'
p7216
(lp7217
g14
asS'outstanding deepwater =\nharbor'
p7218
(lp7219
g25
asS'close tag'
p7220
(lp7221
g14
asS'excluding'
p7222
(lp7223
g41
asS'booktitle = sigir94'
p7224
(lp7225
g14
asS'copyright notices contained'
p7226
(lp7227
g7
ag8
asS'leading product'
p7228
(lp7229
g38
asS'united states[edit]'
p7230
(lp7231
g30
asS'main driving force[1]'
p7232
(lp7233
g38
asS'additional files'
p7234
(lp7235
g14
asS'morgan kaufmann'
p7236
(lp7237
g14
asS'[9]\ngold'
p7238
(lp7239
g38
asS'total information awareness program'
p7240
(lp7241
g30
asS'page'
p7242
(lp7243
g38
asS'baker island'
p7244
(lp7245
g25
asS'technology law review'
p7246
(lp7247
g30
asS'witwatersrand area'
p7248
(lp7249
g38
asS'\xc4\x83\n\xd0\xa0\xd1\x83\xd1\x81\xd1\x81\xd0\xba\xd0\xb8\xd0\xb9\nshqip\nsimple english\nsloven\xc4\x8dina\nsloven\xc5\xa1\xc4\x8dina\n\xd0\xa1\xd1\x80\xd0\xbf\xd1\x81\xd0\xba\xd0\xb8 / srpski\nsrpskohrvatski / \xd1\x81\xd1\x80\xd0\xbf\xd1\x81\xd0\xba\xd0\xbe\xd1\x85\xd1\x80\xd0\xb2\xd0\xb0\xd1\x82\xd1\x81\xd0\xba\xd0\xb8\nbasa sunda\nsuomi\nsvenska\n\xe0\xae\xa4\xe0\xae\xae\xe0\xae\xbf\xe0\xae\xb4\xe0\xaf\x8d\n\xe0\xb9\x84\xe0\xb8\x97\xe0\xb8\xa2\n\xd0\xa2\xd0\xbe\xd2\xb7\xd0\xb8\xd0\xba\xd3\xa3'
p7250
(lp7251
g30
asS'positive test examples'
p7252
(lp7253
g14
asS'raw reuters-22173 dataset*'
p7254
(lp7255
g14
asS'create potential liability'
p7256
(lp7257
g7
ag8
asS'exception statement'
p7258
(lp7259
g41
asS'library'
p7260
(lp7261
g41
asS'page\nprint/export\ncreate'
p7262
(lp7263
g30
ag38
asS'lifting pretty warning fingers'
p7264
(lp7265
g11
asS'software interchange'
p7266
(lp7267
g41
asS'industrial =\nproducts'
p7268
(lp7269
g25
asS'consequential damages'
p7270
(lp7271
g7
ag41
ag8
asS'{sparck jones}'
p7272
(lp7273
g14
asS'semi-automatic analysis'
p7274
(lp7275
g30
asS'legal entity exercising rights'
p7276
(lp7277
g41
asS'livestock production accounts ='
p7278
(lp7279
g25
asS'news\nstory [hayes90b]'
p7280
(lp7281
g14
asS'mines'
p7282
(lp7283
g38
asS'royalty-free patent license'
p7284
(lp7285
g7
ag8
asS'eclipse public license'
p7286
(lp7287
g7
asS'york coffee'
p7288
(lp7289
g4
asS'applicable version'
p7290
(lp7291
g41
asS'conference\n\ntreasures\n\nuncle jake\n\nbuck'
p7292
(lp7293
g11
asS'reuters categories\ndavid'
p7294
(lp7295
g4
asS'periodic tax returns'
p7296
(lp7297
g11
asS'warranties'
p7298
(lp7299
g7
ag41
ag8
asS'prime minister jacques chirac'
p7300
(lp7301
g4
asS'data mining solutions report[40]\ngartner 2008'
p7302
(lp7303
g30
asS'data analysis'
p7304
(lp7305
g30
asS'big raindrops fell pattering'
p7306
(lp7307
g11
asS'terminate automatically'
p7308
(lp7309
g41
asS'found muff potter washing'
p7310
(lp7311
g11
asS'bandar seri begawan'
p7312
(lp7313
g25
asS'forestry sectors =\nprovide employment'
p7314
(lp7315
g25
asS'light industry =\nproduces basic  textiles'
p7316
(lp7317
g25
asS'offshore oil deposits'
p7318
(lp7319
g25
asS'quality consumer goods'
p7320
(lp7321
g25
asS'encourage researchers'
p7322
(lp7323
g14
asS'rousing act\n\ntail piece'
p7324
(lp7325
g11
asS'injun joe\n\nchapter xxv'
p7326
(lp7327
g11
asS'training set'
p7328
(lp7329
g14
asS'reuters\nannotations'
p7330
(lp7331
g14
asS'actual'
p7332
(lp7333
g7
ag8
asS'national security'
p7334
(lp7335
g30
asS'fatality rate'
p7336
(lp7337
g38
asS'mirror group'
p7338
(lp7339
g4
asS'30 days'
p7340
(lp7341
g41
asS'examples belonging'
p7342
(lp7343
g14
asS'individual-level data deducible'
p7344
(lp7345
g30
asS'distributor hereunder prior'
p7346
(lp7347
g41
asS'diversified crop'
p7348
(lp7349
g25
asS'york commodity exchange'
p7350
(lp7351
g4
asS'data mining\ndmkd conference \xe2\x80\x93 research issues'
p7352
(lp7353
g30
asS'warranty'
p7354
(lp7355
g7
ag41
ag8
asS'suharto'
p7356
(lp7357
g4
asS'fertile soil'
p7358
(lp7359
g25
asS'cussed\nsmothery houses'
p7360
(lp7361
g11
asS'eventually rescued'
p7362
(lp7363
g38
asS'@*\nlatin american free trade association'
p7364
(lp7365
g4
asS'proofread\npublic domain works'
p7366
(lp7367
g11
asS'data files'
p7368
(lp7369
g14
asS'making general havoc'
p7370
(lp7371
g11
asS'switzer=\nland'
p7372
(lp7373
g25
asS'premier professional body'
p7374
(lp7375
g30
asS'sibanye hoards uranium'
p7376
(lp7377
g38
asS'landing fifty yards\ndownstream'
p7378
(lp7379
g11
asS'rafters tom sawyer'
p7380
(lp7381
g11
asS'south africa remains'
p7382
(lp7383
g38
asS'discordant voice profaned'
p7384
(lp7385
g11
asS'accurate prediction results'
p7386
(lp7387
g30
asS'registered trademark'
p7388
(lp7389
g38
asS'united nations conference'
p7390
(lp7391
g4
asS'international energy agency executive director helga steeg'
p7392
(lp7393
g4
asS'contributors related'
p7394
(lp7395
g7
ag8
asS'bypass stories'
p7396
(lp7397
g14
asS'normal structure'
p7398
(lp7399
g14
asS'paper mail'
p7400
(lp7401
g41
asS'adventures planned\n\n\n\n\nillustrations\n\ntom sawyer\n\ntom'
p7402
(lp7403
g11
asS'intention'
p7404
(lp7405
g30
asS'development'
p7406
(lp7407
g38
asS'outstanding shares'
p7408
(lp7409
g41
asS'negro men stood guard'
p7410
(lp7411
g11
asS'compressed air pipe ruptured due'
p7412
(lp7413
g38
asS'surplus food producer'
p7414
(lp7415
g25
asS'artificial intelligence'
p7416
(lp7417
g30
ag14
asS'nearby british colonial government'
p7418
(lp7419
g38
asS'notable examples'
p7420
(lp7421
g30
asS'jacques santer'
p7422
(lp7423
g4
asS'2012 lonmin strike\n2'
p7424
(lp7425
g38
asS'feature extraction'
p7426
(lp7427
g14
asS'trade options exchange'
p7428
(lp7429
g4
asS'book\ndownload'
p7430
(lp7431
g38
asS'data warehouse\n[show]'
p7432
(lp7433
g30
asS'government rights clause'
p7434
(lp7435
g41
asS'freely sharing project gutenberg-tm works'
p7436
(lp7437
g11
asS'general public license applies'
p7438
(lp7439
g41
asS'karoo south africa'
p7440
(lp7441
g38
asS'data mining[edit]\ndata mining involves'
p7442
(lp7443
g30
asS'current donation\nmethods'
p7444
(lp7445
g11
asS'finance minister svetozar rikanovic'
p7446
(lp7447
g4
asS'swarthy sun-tanned skin'
p7448
(lp7449
g11
asS'basin'
p7450
(lp7451
g38
asS'platinum supply equation'
p7452
(lp7453
g38
asS'constitute'
p7454
(lp7455
g41
asS'noun phrases'
p7456
(lp7457
g14
asS'made'
p7458
(lp7459
g7
ag41
ag8
asS'operating system'
p7460
(lp7461
g41
asS'`show'
p7462
(lp7463
g41
asS'wikipedia\nwikipedia store\ninteraction'
p7464
(lp7465
g30
ag38
asS'references\n12'
p7466
(lp7467
g30
asS'project gutenberg-tm electronic\nworks'
p7468
(lp7469
g11
asS'big data\xd7\xb3'
p7470
(lp7471
g30
asS'palladium[edit]\nsouth africa produces'
p7472
(lp7473
g38
asS'published studies'
p7474
(lp7475
g14
asS'christmas island'
p7476
(lp7477
g25
asS'copyright law[edit]\nsituation'
p7478
(lp7479
g30
asS'chapter xxiv\n\ntom'
p7480
(lp7481
g11
asS'za/article/2014-south-african-platinum-strike-longest-wage-strike-south-africa\n[show]'
p7482
(lp7483
g38
asS'tags optionally delimit elements inside'
p7484
(lp7485
g14
asS'distribution'
p7486
(lp7487
g7
ag41
ag8
asS'cgisplit attributes'
p7488
(lp7489
g14
asS'primary south african sources'
p7490
(lp7491
g38
asS'forming\nreuters-21578'
p7492
(lp7493
g14
asS'president hojatoleslam ali khameini'
p7494
(lp7495
g4
asS'regression analysis'
p7496
(lp7497
g30
asS'contact lewis@research'
p7498
(lp7499
g14
asS'virgin =\nislands'
p7500
(lp7501
g25
asS'people categories'
p7502
(lp7503
g14
asS'instalment debt/consumer credit'
p7504
(lp7505
g4
asS'south african mines'
p7506
(lp7507
g38
asS'sorrowful sight presented'
p7508
(lp7509
g11
asS'nuclear power'
p7510
(lp7511
g38
asS'competent rocks makes'
p7512
(lp7513
g38
asS'minor production'
p7514
(lp7515
g25
asS'list\n  orgs                           56                  56\n  exchanges                      39                  39 \n  places'
p7516
(lp7517
g4
asS'year = 1990\n}\n\n@inproceedings{hayes90b'
p7518
(lp7519
g14
asS'gold exports'
p7520
(lp7521
g38
asS'text-based intelligent systems'
p7522
(lp7523
g14
asS'finance minister antonio gava'
p7524
(lp7525
g4
asS'spacious temporary platform'
p7526
(lp7527
g11
asS'contest'
p7528
(lp7529
g41
asS'effectiveness measures'
p7530
(lp7531
g14
asS'agreement steward'
p7532
(lp7533
g7
ag8
asS'tom groaned louder'
p7534
(lp7535
g11
asS'proprietary programs'
p7536
(lp7537
g41
asS'land  area divided ='
p7538
(lp7539
g25
asS'improve training'
p7540
(lp7541
g38
asS'communist party mikhail gorbachev'
p7542
(lp7543
g4
asS'free weka software'
p7544
(lp7545
g30
asS'canada'
p7546
(lp7547
g4
asS'reckon hoss williams hears'
p7548
(lp7549
g11
asS'tuple representations'
p7550
(lp7551
g14
asS'beauty unadorned save'
p7552
(lp7553
g11
asS'major components'
p7554
(lp7555
g41
asS'main reef/main reef leader'
p7556
(lp7557
g38
asS'60 day notice period'
p7558
(lp7559
g41
asS'leading methodology'
p7560
(lp7561
g30
asS'equipment including outdated equipment'
p7562
(lp7563
g11
asS'computing effectiveness\nmeasures'
p7564
(lp7565
g14
asS'light =\nconsumer goods'
p7566
(lp7567
g25
asS'merchantability'
p7568
(lp7569
g7
ag8
asS'computer software code'
p7570
(lp7571
g41
asS'fully exploited'
p7572
(lp7573
g25
asS'alfonsin'
p7574
(lp7575
g4
asS'direct contraventions'
p7576
(lp7577
g38
asS'real-time big data stream mining'
p7578
(lp7579
g30
asS'finance minister barend du plessis'
p7580
(lp7581
g4
asS'standard methods'
p7582
(lp7583
g14
asS'explore temporal issues'
p7584
(lp7585
g14
asS'larger work'
p7586
(lp7587
g41
asS'document dj'
p7588
(lp7589
g14
asS'finnbogadottir'
p7590
(lp7591
g4
asS'pdf\nprintable version'
p7592
(lp7593
g30
ag38
asS'gather data'
p7594
(lp7595
g30
asS'rule'
p7596
(lp7597
g30
asS'heard island'
p7598
(lp7599
g25
asS'shallow limpid water'
p7600
(lp7601
g11
asS'junction sixty feet overhead'
p7602
(lp7603
g11
asS'finance minister miguel riberio cadilhe'
p7604
(lp7605
g4
asS'}\n\n@inproceedings{lewis91c'
p7606
(lp7607
g14
asS'raw materials'
p7608
(lp7609
g25
asS'originally received'
p7610
(lp7611
g41
asS'gnu library general public license'
p7612
(lp7613
g41
asS'human knowledge\nengineering based'
p7614
(lp7615
g14
asS'indirectly'
p7616
(lp7617
g41
asS'national union'
p7618
(lp7619
g38
as.